
========================================================================

** ELF Header Information

    File Name: try_dhrystone.elf

    Machine class: ELFCLASS32 (32-bit)
    Data encoding: ELFDATA2LSB (Little endian)
    Header version: EV_CURRENT (Current version)
    Operating System ABI: none
    ABI Version: 0
    File Type: ET_EXEC (Executable) (2)
    Machine: EM_ARM (ARM)

    Image Entry point: 0x00000000
    Flags: EF_ARM_HASENTRY (0x05000002)

    ARM ELF revision: 5 (ABI version 2)

    Built with
    ARM C/C++ Compiler, RVCT4.0 [Build 400]
    ARM Assembler, RVCT4.0 [Build 400]
    ARM Linker, RVCT4.0 [Build 400] 

    Header size: 52 bytes (0x34)
    Program header entry size: 32 bytes (0x20)
    Section header entry size: 40 bytes (0x28)

    Program header entries: 1
    Section header entries: 11

    Program header offset: 39628 (0x00009acc)
    Section header offset: 39660 (0x00009aec)

    Section header string table index: 10

========================================================================

** Program header #0 (PT_LOAD) [PF_X + PF_W + PF_R + PF_ARM_ENTRY]
    Size : 23492 bytes (10968 bytes in file)
    Virtual address: 0x00000000 (Alignment 4)


========================================================================

** Section #1 'ITCM' (SHT_PROGBITS) [SHF_ALLOC + SHF_EXECINSTR]
    Size   : 10908 bytes (alignment 4)
    Address: 0x00000000

    $a
    _alib_reset
    Image$$ITCM$$RO$$Base
    cpu_reset
        0x00000000:    e59ff018    ....    LDR      pc,reset_vec ; [0x20] = 0x78
    undef
        0x00000004:    e59ff018    ....    LDR      pc,undef_vec ; [0x24] = 0xd8
        0x00000008:    e59ff018    ....    LDR      pc,svc_vec ; [0x28] = 0xe0
        0x0000000c:    e59ff018    ....    LDR      pc,pabt_vec ; [0x2c] = 0xe8
        0x00000010:    e59ff018    ....    LDR      pc,dabt_vec ; [0x30] = 0xf0
        0x00000014:    ebfffffa    ....    BL       undef ; 0x4
        0x00000018:    e51ffff0    ....    LDR      pc,[pc,#-4080] ; [0xfffff030]
        0x0000001c:    e59ff018    ....    LDR      pc,fiq_vec ; [0x3c] = 0x100
    $d
    reset_vec
        0x00000020:    00000078    x...    DCD    120
    undef_vec
        0x00000024:    000000d8    ....    DCD    216
    svc_vec
        0x00000028:    000000e0    ....    DCD    224
    pabt_vec
        0x0000002c:    000000e8    ....    DCD    232
    dabt_vec
        0x00000030:    000000f0    ....    DCD    240
    aplx_proc
        0x00000034:    00000fc5    ....    DCD    4037
    irq_vec
        0x00000038:    000000f8    ....    DCD    248
    fiq_vec
        0x0000003c:    00000100    ....    DCD    256
    svc_stack
        0x00000040:    0060        `.      DCW    96
    irq_stack
        0x00000042:    0040        @.      DCW    64
    fiq_stack
        0x00000044:    0040        @.      DCW    64
    stack_size
        0x00000046:    0800        ..      DCW    2048
    code_top
        0x00000048:    00002a9c    .*..    DCD    10908
    heap_base
        0x0000004c:    00402928    ()@.    DCD    4204840
    stack_top
        0x00000050:    00410000    ..A.    DCD    4259840
    stack_fill
        0x00000054:    deaddead    ....    DCD    3735936685
    num_msgs
        0x00000058:    04          .       DCB    4
    sark_slot
        0x00000059:    0f          .       DCB    15
    num_events
        0x0000005a:    10          .       DCB    16
    api
        0x0000005b:    00          .       DCB    0
    app_id
        0x0000005c:    00          .       DCB    0
    app_flags
        0x0000005d:    00          .       DCB    0
    __PAD
        0x0000005e:    0000        ..      DCW    0
    event_vec
        0x00000060:    00000000    ....    DCD    0
        0x00000064:    00000000    ....    DCD    0
        0x00000068:    00000000    ....    DCD    0
        0x0000006c:    00000000    ....    DCD    0
        0x00000070:    00000000    ....    DCD    0
        0x00000074:    00000000    ....    DCD    0
    $a
    reset_entry
        0x00000078:    e24f1060    `.O.    ADR      r1,{pc}-0x58 ; 0x20
        0x0000007c:    e1c103bc    ....    STRH     r0,[r1,#0x3c]
        0x00000080:    e28f0048    H...    ADR      r0,{pc}+0x50 ; 0xd0
        0x00000084:    e5810000    ....    STR      r0,[r1,#0]
        0x00000088:    e59f00f4    ....    LDR      r0,[pc,#244] ; [0x184] = 0x1f7e
        0x0000008c:    ee010f10    ....    MCR      p15,#0x0,r0,c1,c0,#0
        0x00000090:    e321f0d3    ..!.    MSR      CPSR_c,#0xd3
        0x00000094:    e3a0d902    ....    MOV      sp,#0x8000
        0x00000098:    fa000405    ....    BLX      sark_config ; 0x10b4
        0x0000009c:    e51fd054    T...    LDR      sp,stack_top ; [0x50] = 0x410000
        0x000000a0:    e15f26b2    .&_.    LDRH     r2,stack_size ; [0x46] = 0x800
        0x000000a4:    e51f1058    X...    LDR      r1,stack_fill ; [0x54] = 0xdeaddead
        0x000000a8:    e04d0002    ..M.    SUB      r0,sp,r2
        0x000000ac:    eb00042e    ....    BL       sark_word_set ; 0x116c
        0x000000b0:    e1a0000d    ....    MOV      r0,sp
        0x000000b4:    fa0005e0    ....    BLX      sark_init ; 0x183c
        0x000000b8:    e121f000    ..!.    MSR      CPSR_c,r0
        0x000000bc:    fa0006eb    ....    BLX      sark_wait ; 0x1c70
        0x000000c0:    fa0006b2    ....    BLX      sark_pre_main ; 0x1b90
        0x000000c4:    fb00005f    _...    BLX      c_main ; 0x24a
        0x000000c8:    fa0006ac    ....    BLX      sark_post_main ; 0x1b80
        0x000000cc:    eb00002a    *...    BL       cpu_sleep ; 0x17c
    reset_error
        0x000000d0:    e3a00001    ....    MOV      r0,#1
        0x000000d4:    ea000014    ....    B        rt_error ; 0x12c
    undef_error
        0x000000d8:    e3a0b002    ....    MOV      r11,#2
        0x000000dc:    ea00000c    ....    B        exc_error ; 0x114
    svc_error
        0x000000e0:    e3a0b003    ....    MOV      r11,#3
        0x000000e4:    ea00000a    ....    B        exc_error ; 0x114
    pabt_error
        0x000000e8:    e3a0b004    ....    MOV      r11,#4
        0x000000ec:    ea000008    ....    B        exc_error ; 0x114
    dabt_error
        0x000000f0:    e3a0b005    ....    MOV      r11,#5
        0x000000f4:    ea000006    ....    B        exc_error ; 0x114
    irq_error
        0x000000f8:    e3a0b006    ....    MOV      r11,#6
        0x000000fc:    ea000004    ....    B        exc_error ; 0x114
    fiq_error
        0x00000100:    e3a0b007    ....    MOV      r11,#7
        0x00000104:    ea000002    ....    B        exc_error ; 0x114
    vic_error
        0x00000108:    e3a0b008    ....    MOV      r11,#8
        0x0000010c:    e3a0042f    /...    MOV      r0,#0x2f000000
        0x00000110:    e5900030    0...    LDR      r0,[r0,#0x30]
    exc_error
        0x00000114:    e1a0a00e    ....    MOV      r10,lr
        0x00000118:    e14f8000    ..O.    MRS      r8,SPSR
        0x0000011c:    e38890c0    ....    ORR      r9,r8,#0xc0
        0x00000120:    e3c99020     ...    BIC      r9,r9,#0x20
        0x00000124:    e12ff009    ../.    MSR      CPSR_cxsf,r9
        0x00000128:    ea000002    ....    B        cc_error ; 0x138
    rt_error
        0x0000012c:    e1a0b000    ....    MOV      r11,r0
        0x00000130:    e10f8000    ....    MRS      r8,APSR ; formerly CPSR
        0x00000134:    e1a0a00e    ....    MOV      r10,lr
    cc_error
        0x00000138:    e59fc048    H...    LDR      r12,[pc,#72] ; [0x188] = 0x402854
        0x0000013c:    e59cc000    ....    LDR      r12,[r12,#0]
        0x00000140:    e3a09080    ....    MOV      r9,#0x80
        0x00000144:    e59fe040    @...    LDR      lr,[pc,#64] ; [0x18c] = 0xe5007000
        0x00000148:    e02ee99c    ....    MLA      lr,r12,r9,lr
        0x0000014c:    e1a0900d    ....    MOV      r9,sp
        0x00000150:    e88e07ff    ....    STM      lr,{r0-r10}
        0x00000154:    e5ceb02c    ,...    STRB     r11,[lr,#0x2c]
        0x00000158:    e3a08002    ....    MOV      r8,#2
        0x0000015c:    e5ce802e    ....    STRB     r8,[lr,#0x2e]
        0x00000160:    e1a0000b    ....    MOV      r0,r11
        0x00000164:    e321f0d3    ..!.    MSR      CPSR_c,#0xd3
        0x00000168:    fa00054c    L...    BLX      rte_handler ; 0x16a0
    cpu_shutdown
        0x0000016c:    e321f0d3    ..!.    MSR      CPSR_c,#0xd3
        0x00000170:    e3a0042f    /...    MOV      r0,#0x2f000000
        0x00000174:    e3e01000    ....    MVN      r1,#0
        0x00000178:    e5801014    ....    STR      r1,[r0,#0x14]
    cpu_sleep
        0x0000017c:    ee070f90    ....    MCR      p15,#0x0,r0,c7,c0,#4
        0x00000180:    eafffffd    ....    B        cpu_sleep ; 0x17c
    $d
        0x00000184:    00001f7e    ~...    DCD    8062
        0x00000188:    00402854    T(@.    DCD    4204628
        0x0000018c:    e5007000    .p..    DCD    3842011136
    $t
    .text
    time
        0x00000190:    48cf        .H      LDR      r0,[pc,#828] ; [0x4d0] = 0xe5007f00
        0x00000192:    69c0        .i      LDR      r0,[r0,#0x1c]
        0x00000194:    4770        pG      BX       lr
    Proc_2
        0x00000196:    b510        ..      PUSH     {r4,lr}
        0x00000198:    4cce        .L      LDR      r4,[pc,#824] ; [0x4d4] = 0x400000
        0x0000019a:    6803        .h      LDR      r3,[r0,#0]
        0x0000019c:    7821        !x      LDRB     r1,[r4,#0]
        0x0000019e:    330a        .3      ADDS     r3,r3,#0xa
        0x000001a0:    2941        A)      CMP      r1,#0x41
        0x000001a2:    d104        ..      BNE      0x1ae ; Proc_2 + 24
        0x000001a4:    6921        !i      LDR      r1,[r4,#0x10]
        0x000001a6:    1e5b        [.      SUBS     r3,r3,#1
        0x000001a8:    1a59        Y.      SUBS     r1,r3,r1
        0x000001aa:    6001        .`      STR      r1,[r0,#0]
        0x000001ac:    bd10        ..      POP      {r4,pc}
        0x000001ae:    2a00        .*      CMP      r2,#0
        0x000001b0:    d1f6        ..      BNE      0x1a0 ; Proc_2 + 10
        0x000001b2:    bd10        ..      POP      {r4,pc}
    Proc_3
        0x000001b4:    4bc7        .K      LDR      r3,[pc,#796] ; [0x4d4] = 0x400000
        0x000001b6:    b510        ..      PUSH     {r4,lr}
        0x000001b8:    6899        .h      LDR      r1,[r3,#8]
        0x000001ba:    2900        .)      CMP      r1,#0
        0x000001bc:    d001        ..      BEQ      0x1c2 ; Proc_3 + 14
        0x000001be:    6809        .h      LDR      r1,[r1,#0]
        0x000001c0:    6001        .`      STR      r1,[r0,#0]
        0x000001c2:    689a        .h      LDR      r2,[r3,#8]
        0x000001c4:    6919        .i      LDR      r1,[r3,#0x10]
        0x000001c6:    320c        .2      ADDS     r2,r2,#0xc
        0x000001c8:    200a        .       MOVS     r0,#0xa
        0x000001ca:    f000fda1    ....    BL       Proc_7 ; 0xd10
        0x000001ce:    bd10        ..      POP      {r4,pc}
    Proc_1
        0x000001d0:    b570        p.      PUSH     {r4-r6,lr}
        0x000001d2:    0005        ..      MOVS     r5,r0
        0x000001d4:    4ebf        .N      LDR      r6,[pc,#764] ; [0x4d4] = 0x400000
        0x000001d6:    6804        .h      LDR      r4,[r0,#0]
        0x000001d8:    68b1        .h      LDR      r1,[r6,#8]
        0x000001da:    2230        0"      MOVS     r2,#0x30
        0x000001dc:    0020         .      MOVS     r0,r4
        0x000001de:    f000ee02    ....    BLX      __aeabi_memcpy4 ; 0xde4
        0x000001e2:    2005        .       MOVS     r0,#5
        0x000001e4:    60e8        .`      STR      r0,[r5,#0xc]
        0x000001e6:    60e0        .`      STR      r0,[r4,#0xc]
        0x000001e8:    6828        (h      LDR      r0,[r5,#0]
        0x000001ea:    6020         `      STR      r0,[r4,#0]
        0x000001ec:    0020         .      MOVS     r0,r4
        0x000001ee:    f7ffffe1    ....    BL       Proc_3 ; 0x1b4
        0x000001f2:    7920         y      LDRB     r0,[r4,#4]
        0x000001f4:    2800        .(      CMP      r0,#0
        0x000001f6:    d110        ..      BNE      0x21a ; Proc_1 + 74
        0x000001f8:    2006        .       MOVS     r0,#6
        0x000001fa:    0021        !.      MOVS     r1,r4
        0x000001fc:    60e0        .`      STR      r0,[r4,#0xc]
        0x000001fe:    7a28        (z      LDRB     r0,[r5,#8]
        0x00000200:    3108        .1      ADDS     r1,r1,#8
        0x00000202:    f000fd69    ..i.    BL       Proc_6 ; 0xcd8
        0x00000206:    68b0        .h      LDR      r0,[r6,#8]
        0x00000208:    0022        ".      MOVS     r2,r4
        0x0000020a:    6800        .h      LDR      r0,[r0,#0]
        0x0000020c:    6020         `      STR      r0,[r4,#0]
        0x0000020e:    68e0        .h      LDR      r0,[r4,#0xc]
        0x00000210:    320c        .2      ADDS     r2,r2,#0xc
        0x00000212:    210a        .!      MOVS     r1,#0xa
        0x00000214:    f000fd7c    ..|.    BL       Proc_7 ; 0xd10
        0x00000218:    bd70        p.      POP      {r4-r6,pc}
        0x0000021a:    6829        )h      LDR      r1,[r5,#0]
        0x0000021c:    2230        0"      MOVS     r2,#0x30
        0x0000021e:    0028        (.      MOVS     r0,r5
        0x00000220:    f000ede0    ....    BLX      __aeabi_memcpy4 ; 0xde4
        0x00000224:    bd70        p.      POP      {r4-r6,pc}
    Proc_4
        0x00000226:    49ab        .I      LDR      r1,[pc,#684] ; [0x4d4] = 0x400000
        0x00000228:    2001        .       MOVS     r0,#1
        0x0000022a:    780a        .x      LDRB     r2,[r1,#0]
        0x0000022c:    2a41        A*      CMP      r2,#0x41
        0x0000022e:    d000        ..      BEQ      0x232 ; Proc_4 + 12
        0x00000230:    2000        .       MOVS     r0,#0
        0x00000232:    694a        Ji      LDR      r2,[r1,#0x14]
        0x00000234:    4310        .C      ORRS     r0,r0,r2
        0x00000236:    6148        Ha      STR      r0,[r1,#0x14]
        0x00000238:    2042        B       MOVS     r0,#0x42
        0x0000023a:    7048        Hp      STRB     r0,[r1,#1]
        0x0000023c:    4770        pG      BX       lr
    Proc_5
        0x0000023e:    48a5        .H      LDR      r0,[pc,#660] ; [0x4d4] = 0x400000
        0x00000240:    2141        A!      MOVS     r1,#0x41
        0x00000242:    7001        .p      STRB     r1,[r0,#0]
        0x00000244:    2100        .!      MOVS     r1,#0
        0x00000246:    6141        Aa      STR      r1,[r0,#0x14]
        0x00000248:    4770        pG      BX       lr
    c_main
        0x0000024a:    b5f0        ..      PUSH     {r4-r7,lr}
        0x0000024c:    2130        0!      MOVS     r1,#0x30
        0x0000024e:    2001        .       MOVS     r0,#1
        0x00000250:    b097        ..      SUB      sp,sp,#0x5c
        0x00000252:    f001fa2b    ..+.    BL       sark_alloc ; 0x16ac
        0x00000256:    4c9f        .L      LDR      r4,[pc,#636] ; [0x4d4] = 0x400000
        0x00000258:    2130        0!      MOVS     r1,#0x30
        0x0000025a:    60e0        .`      STR      r0,[r4,#0xc]
        0x0000025c:    2001        .       MOVS     r0,#1
        0x0000025e:    f001fa25    ..%.    BL       sark_alloc ; 0x16ac
        0x00000262:    60a0        .`      STR      r0,[r4,#8]
        0x00000264:    68e1        .h      LDR      r1,[r4,#0xc]
        0x00000266:    6001        .`      STR      r1,[r0,#0]
        0x00000268:    2100        .!      MOVS     r1,#0
        0x0000026a:    7101        .q      STRB     r1,[r0,#4]
        0x0000026c:    2602        .&      MOVS     r6,#2
        0x0000026e:    2128        (!      MOVS     r1,#0x28
        0x00000270:    7206        .r      STRB     r6,[r0,#8]
        0x00000272:    60c1        .`      STR      r1,[r0,#0xc]
        0x00000274:    3010        .0      ADDS     r0,r0,#0x10
        0x00000276:    a198        ..      ADR      r1,{pc}+0x262 ; 0x4d8
        0x00000278:    f000ef38    ..8.    BLX      sark_str_cpy ; 0x10ec
        0x0000027c:    a19e        ..      ADR      r1,{pc}+0x27c ; 0x4f8
        0x0000027e:    a80a        ..      ADD      r0,sp,#0x28
        0x00000280:    f000ef34    ..4.    BLX      sark_str_cpy ; 0x10ec
        0x00000284:    48a4        .H      LDR      r0,[pc,#656] ; [0x518] = 0x400744
        0x00000286:    210a        .!      MOVS     r1,#0xa
        0x00000288:    9016        ..      STR      r0,[sp,#0x58]
        0x0000028a:    61c1        .a      STR      r1,[r0,#0x1c]
        0x0000028c:    2000        .       MOVS     r0,#0
        0x0000028e:    a1a3        ..      ADR      r1,{pc}+0x28e ; 0x51c
        0x00000290:    f000ffee    ....    BL       io_printf ; 0x1270
        0x00000294:    2000        .       MOVS     r0,#0
        0x00000296:    a1a2        ..      ADR      r1,{pc}+0x28a ; 0x520
        0x00000298:    f000ffea    ....    BL       io_printf ; 0x1270
        0x0000029c:    2000        .       MOVS     r0,#0
        0x0000029e:    a19f        ..      ADR      r1,{pc}+0x27e ; 0x51c
        0x000002a0:    f000ffe6    ....    BL       io_printf ; 0x1270
        0x000002a4:    6860        `h      LDR      r0,[r4,#4]
        0x000002a6:    2800        .(      CMP      r0,#0
        0x000002a8:    d001        ..      BEQ      0x2ae ; c_main + 100
        0x000002aa:    a1a9        ..      ADR      r1,{pc}+0x2a6 ; 0x550
        0x000002ac:    e000        ..      B        0x2b0 ; c_main + 102
        0x000002ae:    a1b3        ..      ADR      r1,{pc}+0x2ce ; 0x57c
        0x000002b0:    2000        .       MOVS     r0,#0
        0x000002b2:    f000ffdd    ....    BL       io_printf ; 0x1270
        0x000002b6:    2000        .       MOVS     r0,#0
        0x000002b8:    a198        ..      ADR      r1,{pc}+0x264 ; 0x51c
        0x000002ba:    f000ffd9    ....    BL       io_printf ; 0x1270
        0x000002be:    2000        .       MOVS     r0,#0
        0x000002c0:    a1ba        ..      ADR      r1,{pc}+0x2ec ; 0x5ac
        0x000002c2:    f000ffd5    ....    BL       io_printf ; 0x1270
        0x000002c6:    4dc7        .M      LDR      r5,[pc,#796] ; [0x5e4] = 0x989680
        0x000002c8:    2000        .       MOVS     r0,#0
        0x000002ca:    a194        ..      ADR      r1,{pc}+0x252 ; 0x51c
        0x000002cc:    9501        ..      STR      r5,[sp,#4]
        0x000002ce:    f000ffcf    ....    BL       io_printf ; 0x1270
        0x000002d2:    002a        *.      MOVS     r2,r5
        0x000002d4:    2000        .       MOVS     r0,#0
        0x000002d6:    a1c4        ..      ADR      r1,{pc}+0x312 ; 0x5e8
        0x000002d8:    f000ffca    ....    BL       io_printf ; 0x1270
        0x000002dc:    487c        |H      LDR      r0,[pc,#496] ; [0x4d0] = 0xe5007f00
        0x000002de:    69c0        .i      LDR      r0,[r0,#0x1c]
        0x000002e0:    2501        .%      MOVS     r5,#1
        0x000002e2:    61a0        .a      STR      r0,[r4,#0x18]
        0x000002e4:    f7ffffab    ....    BL       Proc_5 ; 0x23e
        0x000002e8:    f7ffff9d    ....    BL       Proc_4 ; 0x226
        0x000002ec:    2002        .       MOVS     r0,#2
        0x000002ee:    9014        ..      STR      r0,[sp,#0x50]
        0x000002f0:    2603        .&      MOVS     r6,#3
        0x000002f2:    a1c9        ..      ADR      r1,{pc}+0x326 ; 0x618
        0x000002f4:    a802        ..      ADD      r0,sp,#8
        0x000002f6:    f000eefa    ....    BLX      sark_str_cpy ; 0x10ec
        0x000002fa:    2001        .       MOVS     r0,#1
        0x000002fc:    9012        ..      STR      r0,[sp,#0x48]
        0x000002fe:    a902        ..      ADD      r1,sp,#8
        0x00000300:    a80a        ..      ADD      r0,sp,#0x28
        0x00000302:    f000fd47    ..G.    BL       Func_2 ; 0xd94
        0x00000306:    2800        .(      CMP      r0,#0
        0x00000308:    d101        ..      BNE      0x30e ; c_main + 196
        0x0000030a:    2001        .       MOVS     r0,#1
        0x0000030c:    e000        ..      B        0x310 ; c_main + 198
        0x0000030e:    2000        .       MOVS     r0,#0
        0x00000310:    6160        `a      STR      r0,[r4,#0x14]
        0x00000312:    9814        ..      LDR      r0,[sp,#0x50]
        0x00000314:    e00b        ..      B        0x32e ; c_main + 228
        0x00000316:    0081        ..      LSLS     r1,r0,#2
        0x00000318:    1840        @.      ADDS     r0,r0,r1
        0x0000031a:    1b80        ..      SUBS     r0,r0,r6
        0x0000031c:    9013        ..      STR      r0,[sp,#0x4c]
        0x0000031e:    9814        ..      LDR      r0,[sp,#0x50]
        0x00000320:    0031        1.      MOVS     r1,r6
        0x00000322:    aa13        ..      ADD      r2,sp,#0x4c
        0x00000324:    f000fcf4    ....    BL       Proc_7 ; 0xd10
        0x00000328:    9814        ..      LDR      r0,[sp,#0x50]
        0x0000032a:    1c40        @.      ADDS     r0,r0,#1
        0x0000032c:    9014        ..      STR      r0,[sp,#0x50]
        0x0000032e:    42b0        .B      CMP      r0,r6
        0x00000330:    dbf1        ..      BLT      0x316 ; c_main + 204
        0x00000332:    49c1        .I      LDR      r1,[pc,#772] ; [0x638] = 0x400104
        0x00000334:    0002        ..      MOVS     r2,r0
        0x00000336:    0008        ..      MOVS     r0,r1
        0x00000338:    9b13        ..      LDR      r3,[sp,#0x4c]
        0x0000033a:    38c8        .8      SUBS     r0,r0,#0xc8
        0x0000033c:    f000fcec    ....    BL       Proc_8 ; 0xd18
        0x00000340:    68a0        .h      LDR      r0,[r4,#8]
        0x00000342:    f7ffff45    ..E.    BL       Proc_1 ; 0x1d0
        0x00000346:    2741        A'      MOVS     r7,#0x41
        0x00000348:    e014        ..      B        0x374 ; c_main + 298
        0x0000034a:    2143        C!      MOVS     r1,#0x43
        0x0000034c:    0038        8.      MOVS     r0,r7
        0x0000034e:    f000fd05    ....    BL       Func_1 ; 0xd5c
        0x00000352:    ab10        ..      ADD      r3,sp,#0x40
        0x00000354:    7a19        .z      LDRB     r1,[r3,#8]
        0x00000356:    4288        .B      CMP      r0,r1
        0x00000358:    d109        ..      BNE      0x36e ; c_main + 292
        0x0000035a:    2000        .       MOVS     r0,#0
        0x0000035c:    a912        ..      ADD      r1,sp,#0x48
        0x0000035e:    f000fcbb    ....    BL       Proc_6 ; 0xcd8
        0x00000362:    a1b6        ..      ADR      r1,{pc}+0x2da ; 0x63c
        0x00000364:    a802        ..      ADD      r0,sp,#8
        0x00000366:    f000eec2    ....    BLX      sark_str_cpy ; 0x10ec
        0x0000036a:    002e        ..      MOVS     r6,r5
        0x0000036c:    6125        %a      STR      r5,[r4,#0x10]
        0x0000036e:    1c7f        ..      ADDS     r7,r7,#1
        0x00000370:    063f        ?.      LSLS     r7,r7,#24
        0x00000372:    0e3f        ?.      LSRS     r7,r7,#24
        0x00000374:    7860        `x      LDRB     r0,[r4,#1]
        0x00000376:    4287        .B      CMP      r7,r0
        0x00000378:    d9e7        ..      BLS      0x34a ; c_main + 256
        0x0000037a:    9814        ..      LDR      r0,[sp,#0x50]
        0x0000037c:    9913        ..      LDR      r1,[sp,#0x4c]
        0x0000037e:    4346        FC      MULS     r6,r0,r6
        0x00000380:    0030        0.      MOVS     r0,r6
        0x00000382:    f000ed62    ..b.    BLX      __aeabi_idiv ; 0xe48
        0x00000386:    9913        ..      LDR      r1,[sp,#0x4c]
        0x00000388:    9014        ..      STR      r0,[sp,#0x50]
        0x0000038a:    1a71        q.      SUBS     r1,r6,r1
        0x0000038c:    00ca        ..      LSLS     r2,r1,#3
        0x0000038e:    1a51        Q.      SUBS     r1,r2,r1
        0x00000390:    1a0e        ..      SUBS     r6,r1,r0
        0x00000392:    a814        ..      ADD      r0,sp,#0x50
        0x00000394:    f7fffeff    ....    BL       Proc_2 ; 0x196
        0x00000398:    9801        ..      LDR      r0,[sp,#4]
        0x0000039a:    1c6d        m.      ADDS     r5,r5,#1
        0x0000039c:    4285        .B      CMP      r5,r0
        0x0000039e:    dda1        ..      BLE      0x2e4 ; c_main + 154
        0x000003a0:    484b        KH      LDR      r0,[pc,#300] ; [0x4d0] = 0xe5007f00
        0x000003a2:    69c0        .i      LDR      r0,[r0,#0x1c]
        0x000003a4:    61e0        .a      STR      r0,[r4,#0x1c]
        0x000003a6:    2000        .       MOVS     r0,#0
        0x000003a8:    a1ac        ..      ADR      r1,{pc}+0x2b4 ; 0x65c
        0x000003aa:    f000ff61    ..a.    BL       io_printf ; 0x1270
        0x000003ae:    2000        .       MOVS     r0,#0
        0x000003b0:    a15a        Z.      ADR      r1,{pc}+0x16c ; 0x51c
        0x000003b2:    f000ff5d    ..].    BL       io_printf ; 0x1270
        0x000003b6:    2000        .       MOVS     r0,#0
        0x000003b8:    a1ac        ..      ADR      r1,{pc}+0x2b4 ; 0x66c
        0x000003ba:    f000ff59    ..Y.    BL       io_printf ; 0x1270
        0x000003be:    2000        .       MOVS     r0,#0
        0x000003c0:    a156        V.      ADR      r1,{pc}+0x15c ; 0x51c
        0x000003c2:    f000ff55    ..U.    BL       io_printf ; 0x1270
        0x000003c6:    6922        "i      LDR      r2,[r4,#0x10]
        0x000003c8:    2000        .       MOVS     r0,#0
        0x000003ca:    a1b6        ..      ADR      r1,{pc}+0x2da ; 0x6a4
        0x000003cc:    f000ff50    ..P.    BL       io_printf ; 0x1270
        0x000003d0:    2205        ."      MOVS     r2,#5
        0x000003d2:    2000        .       MOVS     r0,#0
        0x000003d4:    a1ba        ..      ADR      r1,{pc}+0x2ec ; 0x6c0
        0x000003d6:    f000ff4b    ..K.    BL       io_printf ; 0x1270
        0x000003da:    6962        bi      LDR      r2,[r4,#0x14]
        0x000003dc:    2000        .       MOVS     r0,#0
        0x000003de:    a1bf        ..      ADR      r1,{pc}+0x2fe ; 0x6dc
        0x000003e0:    f000ff46    ..F.    BL       io_printf ; 0x1270
        0x000003e4:    2201        ."      MOVS     r2,#1
        0x000003e6:    2000        .       MOVS     r0,#0
        0x000003e8:    a1b5        ..      ADR      r1,{pc}+0x2d8 ; 0x6c0
        0x000003ea:    f000ff41    ..A.    BL       io_printf ; 0x1270
        0x000003ee:    7822        "x      LDRB     r2,[r4,#0]
        0x000003f0:    2000        .       MOVS     r0,#0
        0x000003f2:    a1c1        ..      ADR      r1,{pc}+0x306 ; 0x6f8
        0x000003f4:    f000ff3c    ..<.    BL       io_printf ; 0x1270
        0x000003f8:    2241        A"      MOVS     r2,#0x41
        0x000003fa:    2000        .       MOVS     r0,#0
        0x000003fc:    a1c5        ..      ADR      r1,{pc}+0x318 ; 0x714
        0x000003fe:    f000ff37    ..7.    BL       io_printf ; 0x1270
        0x00000402:    7862        bx      LDRB     r2,[r4,#1]
        0x00000404:    2000        .       MOVS     r0,#0
        0x00000406:    a1ca        ..      ADR      r1,{pc}+0x32a ; 0x730
        0x00000408:    f000ff32    ..2.    BL       io_printf ; 0x1270
        0x0000040c:    2242        B"      MOVS     r2,#0x42
        0x0000040e:    2000        .       MOVS     r0,#0
        0x00000410:    a1c0        ..      ADR      r1,{pc}+0x304 ; 0x714
        0x00000412:    f000ff2d    ..-.    BL       io_printf ; 0x1270
        0x00000416:    4888        .H      LDR      r0,[pc,#544] ; [0x638] = 0x400104
        0x00000418:    a1cc        ..      ADR      r1,{pc}+0x334 ; 0x74c
        0x0000041a:    38c8        .8      SUBS     r0,r0,#0xc8
        0x0000041c:    6a02        .j      LDR      r2,[r0,#0x20]
        0x0000041e:    2000        .       MOVS     r0,#0
        0x00000420:    f000ff26    ..&.    BL       io_printf ; 0x1270
        0x00000424:    2207        ."      MOVS     r2,#7
        0x00000426:    2000        .       MOVS     r0,#0
        0x00000428:    a1a5        ..      ADR      r1,{pc}+0x298 ; 0x6c0
        0x0000042a:    f000ff21    ..!.    BL       io_printf ; 0x1270
        0x0000042e:    9816        ..      LDR      r0,[sp,#0x58]
        0x00000430:    a1cd        ..      ADR      r1,{pc}+0x338 ; 0x768
        0x00000432:    69c2        .i      LDR      r2,[r0,#0x1c]
        0x00000434:    2000        .       MOVS     r0,#0
        0x00000436:    f000ff1b    ....    BL       io_printf ; 0x1270
        0x0000043a:    2000        .       MOVS     r0,#0
        0x0000043c:    a1d1        ..      ADR      r1,{pc}+0x348 ; 0x784
        0x0000043e:    f000ff17    ....    BL       io_printf ; 0x1270
        0x00000442:    2000        .       MOVS     r0,#0
        0x00000444:    a1da        ..      ADR      r1,{pc}+0x36c ; 0x7b0
        0x00000446:    f000ff13    ....    BL       io_printf ; 0x1270
        0x0000044a:    68a0        .h      LDR      r0,[r4,#8]
        0x0000044c:    a1db        ..      ADR      r1,{pc}+0x370 ; 0x7bc
        0x0000044e:    6802        .h      LDR      r2,[r0,#0]
        0x00000450:    2000        .       MOVS     r0,#0
        0x00000452:    f000ff0d    ....    BL       io_printf ; 0x1270
        0x00000456:    2000        .       MOVS     r0,#0
        0x00000458:    a1df        ..      ADR      r1,{pc}+0x380 ; 0x7d8
        0x0000045a:    f000ff09    ....    BL       io_printf ; 0x1270
        0x0000045e:    68a0        .h      LDR      r0,[r4,#8]
        0x00000460:    a1ea        ..      ADR      r1,{pc}+0x3ac ; 0x80c
        0x00000462:    7902        .y      LDRB     r2,[r0,#4]
        0x00000464:    2000        .       MOVS     r0,#0
        0x00000466:    f000ff03    ....    BL       io_printf ; 0x1270
        0x0000046a:    2200        ."      MOVS     r2,#0
        0x0000046c:    0010        ..      MOVS     r0,r2
        0x0000046e:    a194        ..      ADR      r1,{pc}+0x252 ; 0x6c0
        0x00000470:    f000fefe    ....    BL       io_printf ; 0x1270
        0x00000474:    68a0        .h      LDR      r0,[r4,#8]
        0x00000476:    a1ec        ..      ADR      r1,{pc}+0x3b2 ; 0x828
        0x00000478:    7a02        .z      LDRB     r2,[r0,#8]
        0x0000047a:    2000        .       MOVS     r0,#0
        0x0000047c:    f000fef8    ....    BL       io_printf ; 0x1270
        0x00000480:    2202        ."      MOVS     r2,#2
        0x00000482:    2000        .       MOVS     r0,#0
        0x00000484:    a18e        ..      ADR      r1,{pc}+0x23c ; 0x6c0
        0x00000486:    f000fef3    ....    BL       io_printf ; 0x1270
        0x0000048a:    68a0        .h      LDR      r0,[r4,#8]
        0x0000048c:    a1ed        ..      ADR      r1,{pc}+0x3b8 ; 0x844
        0x0000048e:    68c2        .h      LDR      r2,[r0,#0xc]
        0x00000490:    2000        .       MOVS     r0,#0
        0x00000492:    f000feed    ....    BL       io_printf ; 0x1270
        0x00000496:    2211        ."      MOVS     r2,#0x11
        0x00000498:    2000        .       MOVS     r0,#0
        0x0000049a:    a189        ..      ADR      r1,{pc}+0x226 ; 0x6c0
        0x0000049c:    f000fee8    ....    BL       io_printf ; 0x1270
        0x000004a0:    68a2        .h      LDR      r2,[r4,#8]
        0x000004a2:    2000        .       MOVS     r0,#0
        0x000004a4:    3210        .2      ADDS     r2,r2,#0x10
        0x000004a6:    a1ee        ..      ADR      r1,{pc}+0x3ba ; 0x860
        0x000004a8:    f000fee2    ....    BL       io_printf ; 0x1270
        0x000004ac:    2000        .       MOVS     r0,#0
        0x000004ae:    a1f3        ..      ADR      r1,{pc}+0x3ce ; 0x87c
        0x000004b0:    f000fede    ....    BL       io_printf ; 0x1270
        0x000004b4:    2000        .       MOVS     r0,#0
        0x000004b6:    a1ff        ..      ADR      r1,{pc}+0x3fe ; 0x8b4
        0x000004b8:    f000feda    ....    BL       io_printf ; 0x1270
        0x000004bc:    68e0        .h      LDR      r0,[r4,#0xc]
        0x000004be:    a1bf        ..      ADR      r1,{pc}+0x2fe ; 0x7bc
        0x000004c0:    6802        .h      LDR      r2,[r0,#0]
        0x000004c2:    2000        .       MOVS     r0,#0
        0x000004c4:    f000fed4    ....    BL       io_printf ; 0x1270
        0x000004c8:    2000        .       MOVS     r0,#0
        0x000004ca:    a1ff        ..      ADR      r1,{pc}+0x3fe ; 0x8c8
        0x000004cc:    e21c        ..      B        0x908 ; c_main + 1726
    $d
        0x000004ce:    0000        ..      DCW    0
        0x000004d0:    e5007f00    ....    DCD    3842014976
        0x000004d4:    00400000    ..@.    DCD    4194304
        0x000004d8:    59524844    DHRY    DCD    1498564676
        0x000004dc:    4e4f5453    STON    DCD    1313821779
        0x000004e0:    52502045    E PR    DCD    1380982853
        0x000004e4:    4152474f    OGRA    DCD    1095911247
        0x000004e8:    53202c4d    M, S    DCD    1394617421
        0x000004ec:    20454d4f    OME     DCD    541412687
        0x000004f0:    49525453    STRI    DCD    1230132307
        0x000004f4:    0000474e    NG..    DCD    18254
        0x000004f8:    59524844    DHRY    DCD    1498564676
        0x000004fc:    4e4f5453    STON    DCD    1313821779
        0x00000500:    52502045    E PR    DCD    1380982853
        0x00000504:    4152474f    OGRA    DCD    1095911247
        0x00000508:    31202c4d    M, 1    DCD    824192077
        0x0000050c:    20545327    'ST     DCD    542397223
        0x00000510:    49525453    STRI    DCD    1230132307
        0x00000514:    0000474e    NG..    DCD    18254
        0x00000518:    00400744    D.@.    DCD    4196164
        0x0000051c:    0000000a    ....    DCD    10
        0x00000520:    79726844    Dhry    DCD    2037540932
        0x00000524:    6e6f7473    ston    DCD    1852798067
        0x00000528:    65422065    e Be    DCD    1698832485
        0x0000052c:    6d68636e    nchm    DCD    1835557742
        0x00000530:    2c6b7261    ark,    DCD    745239137
        0x00000534:    72655620     Ver    DCD    1919243808
        0x00000538:    6e6f6973    sion    DCD    1852795251
        0x0000053c:    312e3220     2.1    DCD    825111072
        0x00000540:    614c2820     (La    DCD    1632380960
        0x00000544:    6175676e    ngua    DCD    1635084142
        0x00000548:    203a6567    ge:     DCD    540697959
        0x0000054c:    000a2943    C)..    DCD    665923
        0x00000550:    676f7250    Prog    DCD    1735357008
        0x00000554:    206d6172    ram     DCD    544039282
        0x00000558:    706d6f63    comp    DCD    1886220131
        0x0000055c:    64656c69    iled    DCD    1684368489
        0x00000560:    74697720     wit    DCD    1953068832
        0x00000564:    72272068    h 'r    DCD    1915166824
        0x00000568:    73696765    egis    DCD    1936287589
        0x0000056c:    27726574    ter'    DCD    661808500
        0x00000570:    74746120     att    DCD    1953784096
        0x00000574:    75626972    ribu    DCD    1969383794
        0x00000578:    000a6574    te..    DCD    681332
        0x0000057c:    676f7250    Prog    DCD    1735357008
        0x00000580:    206d6172    ram     DCD    544039282
        0x00000584:    706d6f63    comp    DCD    1886220131
        0x00000588:    64656c69    iled    DCD    1684368489
        0x0000058c:    74697720     wit    DCD    1953068832
        0x00000590:    74756f68    hout    DCD    1953853288
        0x00000594:    65722720     're    DCD    1701979936
        0x00000598:    74736967    gist    DCD    1953720679
        0x0000059c:    20277265    er'     DCD    539456101
        0x000005a0:    72747461    attr    DCD    1920234593
        0x000005a4:    74756269    ibut    DCD    1953849961
        0x000005a8:    00000a65    e...    DCD    2661
        0x000005ac:    61656c50    Plea    DCD    1634036816
        0x000005b0:    67206573    se g    DCD    1730176371
        0x000005b4:    20657669    ive     DCD    543520361
        0x000005b8:    20656874    the     DCD    543516788
        0x000005bc:    626d756e    numb    DCD    1651340654
        0x000005c0:    6f207265    er o    DCD    1864397413
        0x000005c4:    75722066    f ru    DCD    1970413670
        0x000005c8:    7420736e    ns t    DCD    1948283758
        0x000005cc:    756f7268    hrou    DCD    1970238056
        0x000005d0:    74206867    gh t    DCD    1948280935
        0x000005d4:    62206568    he b    DCD    1646290280
        0x000005d8:    68636e65    ench    DCD    1751346789
        0x000005dc:    6b72616d    mark    DCD    1802658157
        0x000005e0:    0000203a    : ..    DCD    8250
        0x000005e4:    00989680    ....    DCD    10000000
        0x000005e8:    63657845    Exec    DCD    1667594309
        0x000005ec:    6f697475    utio    DCD    1869182069
        0x000005f0:    7473206e    n st    DCD    1953701998
        0x000005f4:    73747261    arts    DCD    1937011297
        0x000005f8:    6425202c    , %d    DCD    1680154668
        0x000005fc:    6e757220     run    DCD    1853190688
        0x00000600:    68742073    s th    DCD    1752440947
        0x00000604:    67756f72    roug    DCD    1735749490
        0x00000608:    68442068    h Dh    DCD    1749295208
        0x0000060c:    74737972    ryst    DCD    1953724786
        0x00000610:    0a656e6f    one.    DCD    174419567
        0x00000614:    00000000    ....    DCD    0
        0x00000618:    59524844    DHRY    DCD    1498564676
        0x0000061c:    4e4f5453    STON    DCD    1313821779
        0x00000620:    52502045    E PR    DCD    1380982853
        0x00000624:    4152474f    OGRA    DCD    1095911247
        0x00000628:    32202c4d    M, 2    DCD    840969293
        0x0000062c:    20444e27    'ND     DCD    541347367
        0x00000630:    49525453    STRI    DCD    1230132307
        0x00000634:    0000474e    NG..    DCD    18254
        0x00000638:    00400104    ..@.    DCD    4194564
        0x0000063c:    59524844    DHRY    DCD    1498564676
        0x00000640:    4e4f5453    STON    DCD    1313821779
        0x00000644:    52502045    E PR    DCD    1380982853
        0x00000648:    4152474f    OGRA    DCD    1095911247
        0x0000064c:    33202c4d    M, 3    DCD    857746509
        0x00000650:    20445227    'RD     DCD    541348391
        0x00000654:    49525453    STRI    DCD    1230132307
        0x00000658:    0000474e    NG..    DCD    18254
        0x0000065c:    63657845    Exec    DCD    1667594309
        0x00000660:    6f697475    utio    DCD    1869182069
        0x00000664:    6e65206e    n en    DCD    1852121198
        0x00000668:    000a7364    ds..    DCD    684900
        0x0000066c:    616e6946    Fina    DCD    1634625862
        0x00000670:    6176206c    l va    DCD    1635131500
        0x00000674:    7365756c    lues    DCD    1936029036
        0x00000678:    20666f20     of     DCD    543584032
        0x0000067c:    20656874    the     DCD    543516788
        0x00000680:    69726176    vari    DCD    1769103734
        0x00000684:    656c6261    able    DCD    1701601889
        0x00000688:    73752073    s us    DCD    1937055859
        0x0000068c:    69206465    ed i    DCD    1763730533
        0x00000690:    6874206e    n th    DCD    1752440942
        0x00000694:    65622065    e be    DCD    1700929637
        0x00000698:    6d68636e    nchm    DCD    1835557742
        0x0000069c:    3a6b7261    ark:    DCD    980120161
        0x000006a0:    0000000a    ....    DCD    10
        0x000006a4:    5f746e49    Int_    DCD    1601465929
        0x000006a8:    626f6c47    Glob    DCD    1651469383
        0x000006ac:    2020203a    :       DCD    538976314
        0x000006b0:    20202020            DCD    538976288
        0x000006b4:    20202020            DCD    538976288
        0x000006b8:    0a642520     %d.    DCD    174335264
        0x000006bc:    00000000    ....    DCD    0
        0x000006c0:    20202020            DCD    538976288
        0x000006c4:    20202020            DCD    538976288
        0x000006c8:    756f6873    shou    DCD    1970235507
        0x000006cc:    6220646c    ld b    DCD    1646290028
        0x000006d0:    20203a65    e:      DCD    538983013
        0x000006d4:    0a642520     %d.    DCD    174335264
        0x000006d8:    00000000    ....    DCD    0
        0x000006dc:    6c6f6f42    Bool    DCD    1819242306
        0x000006e0:    6f6c475f    _Glo    DCD    1869367135
        0x000006e4:    20203a62    b:      DCD    538983010
        0x000006e8:    20202020            DCD    538976288
        0x000006ec:    20202020            DCD    538976288
        0x000006f0:    0a642520     %d.    DCD    174335264
        0x000006f4:    00000000    ....    DCD    0
        0x000006f8:    315f6843    Ch_1    DCD    828336195
        0x000006fc:    6f6c475f    _Glo    DCD    1869367135
        0x00000700:    20203a62    b:      DCD    538983010
        0x00000704:    20202020            DCD    538976288
        0x00000708:    20202020            DCD    538976288
        0x0000070c:    0a632520     %c.    DCD    174269728
        0x00000710:    00000000    ....    DCD    0
        0x00000714:    20202020            DCD    538976288
        0x00000718:    20202020            DCD    538976288
        0x0000071c:    756f6873    shou    DCD    1970235507
        0x00000720:    6220646c    ld b    DCD    1646290028
        0x00000724:    20203a65    e:      DCD    538983013
        0x00000728:    0a632520     %c.    DCD    174269728
        0x0000072c:    00000000    ....    DCD    0
        0x00000730:    325f6843    Ch_2    DCD    845113411
        0x00000734:    6f6c475f    _Glo    DCD    1869367135
        0x00000738:    20203a62    b:      DCD    538983010
        0x0000073c:    20202020            DCD    538976288
        0x00000740:    20202020            DCD    538976288
        0x00000744:    0a632520     %c.    DCD    174269728
        0x00000748:    00000000    ....    DCD    0
        0x0000074c:    5f727241    Arr_    DCD    1601335873
        0x00000750:    6c475f31    1_Gl    DCD    1816616753
        0x00000754:    385b626f    ob[8    DCD    945513071
        0x00000758:    20203a5d    ]:      DCD    538983005
        0x0000075c:    20202020            DCD    538976288
        0x00000760:    0a642520     %d.    DCD    174335264
        0x00000764:    00000000    ....    DCD    0
        0x00000768:    5f727241    Arr_    DCD    1601335873
        0x0000076c:    6c475f32    2_Gl    DCD    1816616754
        0x00000770:    385b626f    ob[8    DCD    945513071
        0x00000774:    5d375b5d    ][7]    DCD    1563908957
        0x00000778:    2020203a    :       DCD    538976314
        0x0000077c:    0a642520     %d.    DCD    174335264
        0x00000780:    00000000    ....    DCD    0
        0x00000784:    20202020            DCD    538976288
        0x00000788:    20202020            DCD    538976288
        0x0000078c:    756f6873    shou    DCD    1970235507
        0x00000790:    6220646c    ld b    DCD    1646290028
        0x00000794:    20203a65    e:      DCD    538983013
        0x00000798:    6d754e20     Num    DCD    1836404256
        0x0000079c:    5f726562    ber_    DCD    1601332578
        0x000007a0:    525f664f    Of_R    DCD    1381983823
        0x000007a4:    20736e75    uns     DCD    544435829
        0x000007a8:    3031202b    + 10    DCD    808525867
        0x000007ac:    0000000a    ....    DCD    10
        0x000007b0:    5f727450    Ptr_    DCD    1601336400
        0x000007b4:    626f6c47    Glob    DCD    1651469383
        0x000007b8:    000a3e2d    ->..    DCD    671277
        0x000007bc:    74502020      Pt    DCD    1951408160
        0x000007c0:    6f435f72    r_Co    DCD    1866686322
        0x000007c4:    203a706d    mp:     DCD    540700781
        0x000007c8:    20202020            DCD    538976288
        0x000007cc:    20202020            DCD    538976288
        0x000007d0:    0a642520     %d.    DCD    174335264
        0x000007d4:    00000000    ....    DCD    0
        0x000007d8:    20202020            DCD    538976288
        0x000007dc:    20202020            DCD    538976288
        0x000007e0:    756f6873    shou    DCD    1970235507
        0x000007e4:    6220646c    ld b    DCD    1646290028
        0x000007e8:    20203a65    e:      DCD    538983013
        0x000007ec:    6d692820     (im    DCD    1835608096
        0x000007f0:    6d656c70    plem    DCD    1835363440
        0x000007f4:    61746e65    enta    DCD    1635020389
        0x000007f8:    6e6f6974    tion    DCD    1852795252
        0x000007fc:    7065642d    -dep    DCD    1885692973
        0x00000800:    65646e65    ende    DCD    1701080677
        0x00000804:    0a29746e    nt).    DCD    170488942
        0x00000808:    00000000    ....    DCD    0
        0x0000080c:    69442020      Di    DCD    1766072352
        0x00000810:    3a726373    scr:    DCD    980575091
        0x00000814:    20202020            DCD    538976288
        0x00000818:    20202020            DCD    538976288
        0x0000081c:    20202020            DCD    538976288
        0x00000820:    0a642520     %d.    DCD    174335264
        0x00000824:    00000000    ....    DCD    0
        0x00000828:    6e452020      En    DCD    1850023968
        0x0000082c:    435f6d75    um_C    DCD    1130327413
        0x00000830:    3a706d6f    omp:    DCD    980446575
        0x00000834:    20202020            DCD    538976288
        0x00000838:    20202020            DCD    538976288
        0x0000083c:    0a642520     %d.    DCD    174335264
        0x00000840:    00000000    ....    DCD    0
        0x00000844:    6e492020      In    DCD    1850286112
        0x00000848:    6f435f74    t_Co    DCD    1866686324
        0x0000084c:    203a706d    mp:     DCD    540700781
        0x00000850:    20202020            DCD    538976288
        0x00000854:    20202020            DCD    538976288
        0x00000858:    0a642520     %d.    DCD    174335264
        0x0000085c:    00000000    ....    DCD    0
        0x00000860:    74532020      St    DCD    1951604768
        0x00000864:    6f435f72    r_Co    DCD    1866686322
        0x00000868:    203a706d    mp:     DCD    540700781
        0x0000086c:    20202020            DCD    538976288
        0x00000870:    20202020            DCD    538976288
        0x00000874:    0a732520     %s.    DCD    175318304
        0x00000878:    00000000    ....    DCD    0
        0x0000087c:    20202020            DCD    538976288
        0x00000880:    20202020            DCD    538976288
        0x00000884:    756f6873    shou    DCD    1970235507
        0x00000888:    6220646c    ld b    DCD    1646290028
        0x0000088c:    20203a65    e:      DCD    538983013
        0x00000890:    52484420     DHR    DCD    1380467744
        0x00000894:    4f545359    YSTO    DCD    1330926425
        0x00000898:    5020454e    NE P    DCD    1344292174
        0x0000089c:    52474f52    ROGR    DCD    1380405074
        0x000008a0:    202c4d41    AM,     DCD    539774273
        0x000008a4:    454d4f53    SOME    DCD    1162694483
        0x000008a8:    52545320     STR    DCD    1381258016
        0x000008ac:    0a474e49    ING.    DCD    172445257
        0x000008b0:    00000000    ....    DCD    0
        0x000008b4:    7478654e    Next    DCD    1954047310
        0x000008b8:    7274505f    _Ptr    DCD    1920225375
        0x000008bc:    6f6c475f    _Glo    DCD    1869367135
        0x000008c0:    0a3e2d62    b->.    DCD    171847010
        0x000008c4:    00000000    ....    DCD    0
        0x000008c8:    20202020            DCD    538976288
        0x000008cc:    20202020            DCD    538976288
        0x000008d0:    756f6873    shou    DCD    1970235507
        0x000008d4:    6220646c    ld b    DCD    1646290028
        0x000008d8:    20203a65    e:      DCD    538983013
        0x000008dc:    6d692820     (im    DCD    1835608096
        0x000008e0:    6d656c70    plem    DCD    1835363440
        0x000008e4:    61746e65    enta    DCD    1635020389
        0x000008e8:    6e6f6974    tion    DCD    1852795252
        0x000008ec:    7065642d    -dep    DCD    1885692973
        0x000008f0:    65646e65    ende    DCD    1701080677
        0x000008f4:    2c29746e    nt),    DCD    740914286
        0x000008f8:    6d617320     sam    DCD    1835103008
        0x000008fc:    73612065    e as    DCD    1935745125
        0x00000900:    6f626120     abo    DCD    1868718368
        0x00000904:    000a6576    ve..    DCD    681334
    $t
        0x00000908:    f000fcb2    ....    BL       io_printf ; 0x1270
        0x0000090c:    68e0        .h      LDR      r0,[r4,#0xc]
        0x0000090e:    4965        eI      LDR      r1,[pc,#404] ; [0xaa4] = 0x80c
        0x00000910:    7902        .y      LDRB     r2,[r0,#4]
        0x00000912:    2000        .       MOVS     r0,#0
        0x00000914:    f000fcac    ....    BL       io_printf ; 0x1270
        0x00000918:    2200        ."      MOVS     r2,#0
        0x0000091a:    4963        cI      LDR      r1,[pc,#396] ; [0xaa8] = 0x6c0
        0x0000091c:    0010        ..      MOVS     r0,r2
        0x0000091e:    f000fca7    ....    BL       io_printf ; 0x1270
        0x00000922:    68e0        .h      LDR      r0,[r4,#0xc]
        0x00000924:    495f        _I      LDR      r1,[pc,#380] ; [0xaa4] = 0x80c
        0x00000926:    7a02        .z      LDRB     r2,[r0,#8]
        0x00000928:    311c        .1      ADDS     r1,r1,#0x1c
        0x0000092a:    2000        .       MOVS     r0,#0
        0x0000092c:    f000fca0    ....    BL       io_printf ; 0x1270
        0x00000930:    495d        ]I      LDR      r1,[pc,#372] ; [0xaa8] = 0x6c0
        0x00000932:    2201        ."      MOVS     r2,#1
        0x00000934:    2000        .       MOVS     r0,#0
        0x00000936:    f000fc9b    ....    BL       io_printf ; 0x1270
        0x0000093a:    68e0        .h      LDR      r0,[r4,#0xc]
        0x0000093c:    4959        YI      LDR      r1,[pc,#356] ; [0xaa4] = 0x80c
        0x0000093e:    68c2        .h      LDR      r2,[r0,#0xc]
        0x00000940:    3138        81      ADDS     r1,r1,#0x38
        0x00000942:    2000        .       MOVS     r0,#0
        0x00000944:    f000fc94    ....    BL       io_printf ; 0x1270
        0x00000948:    4957        WI      LDR      r1,[pc,#348] ; [0xaa8] = 0x6c0
        0x0000094a:    2212        ."      MOVS     r2,#0x12
        0x0000094c:    2000        .       MOVS     r0,#0
        0x0000094e:    f000fc8f    ....    BL       io_printf ; 0x1270
        0x00000952:    68e2        .h      LDR      r2,[r4,#0xc]
        0x00000954:    4953        SI      LDR      r1,[pc,#332] ; [0xaa4] = 0x80c
        0x00000956:    3210        .2      ADDS     r2,r2,#0x10
        0x00000958:    3154        T1      ADDS     r1,r1,#0x54
        0x0000095a:    2000        .       MOVS     r0,#0
        0x0000095c:    f000fc88    ....    BL       io_printf ; 0x1270
        0x00000960:    4950        PI      LDR      r1,[pc,#320] ; [0xaa4] = 0x80c
        0x00000962:    2000        .       MOVS     r0,#0
        0x00000964:    3170        p1      ADDS     r1,r1,#0x70
        0x00000966:    f000fc83    ....    BL       io_printf ; 0x1270
        0x0000096a:    9a14        ..      LDR      r2,[sp,#0x50]
        0x0000096c:    2000        .       MOVS     r0,#0
        0x0000096e:    a14f        O.      ADR      r1,{pc}+0x13e ; 0xaac
        0x00000970:    f000fc7e    ..~.    BL       io_printf ; 0x1270
        0x00000974:    494c        LI      LDR      r1,[pc,#304] ; [0xaa8] = 0x6c0
        0x00000976:    2205        ."      MOVS     r2,#5
        0x00000978:    2000        .       MOVS     r0,#0
        0x0000097a:    f000fc79    ..y.    BL       io_printf ; 0x1270
        0x0000097e:    0032        2.      MOVS     r2,r6
        0x00000980:    2000        .       MOVS     r0,#0
        0x00000982:    a151        Q.      ADR      r1,{pc}+0x146 ; 0xac8
        0x00000984:    f000fc74    ..t.    BL       io_printf ; 0x1270
        0x00000988:    4947        GI      LDR      r1,[pc,#284] ; [0xaa8] = 0x6c0
        0x0000098a:    220d        ."      MOVS     r2,#0xd
        0x0000098c:    2000        .       MOVS     r0,#0
        0x0000098e:    f000fc6f    ..o.    BL       io_printf ; 0x1270
        0x00000992:    9a13        ..      LDR      r2,[sp,#0x4c]
        0x00000994:    2000        .       MOVS     r0,#0
        0x00000996:    a153        S.      ADR      r1,{pc}+0x14e ; 0xae4
        0x00000998:    f000fc6a    ..j.    BL       io_printf ; 0x1270
        0x0000099c:    4942        BI      LDR      r1,[pc,#264] ; [0xaa8] = 0x6c0
        0x0000099e:    2207        ."      MOVS     r2,#7
        0x000009a0:    2000        .       MOVS     r0,#0
        0x000009a2:    f000fc65    ..e.    BL       io_printf ; 0x1270
        0x000009a6:    ab10        ..      ADD      r3,sp,#0x40
        0x000009a8:    7a1a        .z      LDRB     r2,[r3,#8]
        0x000009aa:    2000        .       MOVS     r0,#0
        0x000009ac:    a154        T.      ADR      r1,{pc}+0x154 ; 0xb00
        0x000009ae:    f000fc5f    .._.    BL       io_printf ; 0x1270
        0x000009b2:    493d        =I      LDR      r1,[pc,#244] ; [0xaa8] = 0x6c0
        0x000009b4:    2201        ."      MOVS     r2,#1
        0x000009b6:    2000        .       MOVS     r0,#0
        0x000009b8:    f000fc5a    ..Z.    BL       io_printf ; 0x1270
        0x000009bc:    2000        .       MOVS     r0,#0
        0x000009be:    aa0a        ..      ADD      r2,sp,#0x28
        0x000009c0:    a156        V.      ADR      r1,{pc}+0x15c ; 0xb1c
        0x000009c2:    f000fc55    ..U.    BL       io_printf ; 0x1270
        0x000009c6:    2000        .       MOVS     r0,#0
        0x000009c8:    a15b        [.      ADR      r1,{pc}+0x170 ; 0xb38
        0x000009ca:    f000fc51    ..Q.    BL       io_printf ; 0x1270
        0x000009ce:    2000        .       MOVS     r0,#0
        0x000009d0:    aa02        ..      ADD      r2,sp,#8
        0x000009d2:    a167        g.      ADR      r1,{pc}+0x19e ; 0xb70
        0x000009d4:    f000fc4c    ..L.    BL       io_printf ; 0x1270
        0x000009d8:    2000        .       MOVS     r0,#0
        0x000009da:    a16c        l.      ADR      r1,{pc}+0x1b2 ; 0xb8c
        0x000009dc:    f000fc48    ..H.    BL       io_printf ; 0x1270
        0x000009e0:    2000        .       MOVS     r0,#0
        0x000009e2:    a178        x.      ADR      r1,{pc}+0x1e2 ; 0xbc4
        0x000009e4:    f000fc44    ..D.    BL       io_printf ; 0x1270
        0x000009e8:    69a1        .i      LDR      r1,[r4,#0x18]
        0x000009ea:    69e0        .i      LDR      r0,[r4,#0x1c]
        0x000009ec:    1a47        G.      SUBS     r7,r0,r1
        0x000009ee:    2f02        ./      CMP      r7,#2
        0x000009f0:    6227        'b      STR      r7,[r4,#0x20]
        0x000009f2:    da08        ..      BGE      0xa06 ; c_main + 1980
        0x000009f4:    2000        .       MOVS     r0,#0
        0x000009f6:    a174        t.      ADR      r1,{pc}+0x1d2 ; 0xbc8
        0x000009f8:    f000fc3a    ..:.    BL       io_printf ; 0x1270
        0x000009fc:    2000        .       MOVS     r0,#0
        0x000009fe:    a180        ..      ADR      r1,{pc}+0x202 ; 0xc00
        0x00000a00:    f000fc36    ..6.    BL       io_printf ; 0x1270
        0x00000a04:    e048        H.      B        0xa98 ; c_main + 2126
        0x00000a06:    9801        ..      LDR      r0,[sp,#4]
        0x00000a08:    f001ef4e    ..N.    BLX      __aeabi_i2f ; 0x28a8
        0x00000a0c:    9015        ..      STR      r0,[sp,#0x54]
        0x00000a0e:    f001edb2    ....    BLX      __aeabi_f2d ; 0x2574
        0x00000a12:    0005        ..      MOVS     r5,r0
        0x00000a14:    000e        ..      MOVS     r6,r1
        0x00000a16:    0038        8.      MOVS     r0,r7
        0x00000a18:    f001ef46    ..F.    BLX      __aeabi_i2f ; 0x28a8
        0x00000a1c:    0007        ..      MOVS     r7,r0
        0x00000a1e:    f001edaa    ....    BLX      __aeabi_f2d ; 0x2574
        0x00000a22:    a27f        ..      ADR      r2,{pc}+0x1fe ; 0xc20
        0x00000a24:    ca0c        ..      LDM      r2,{r2,r3}
        0x00000a26:    f001ec32    ..2.    BLX      __aeabi_dmul ; 0x228c
        0x00000a2a:    0033        3.      MOVS     r3,r6
        0x00000a2c:    002a        *.      MOVS     r2,r5
        0x00000a2e:    f001e9f4    ....    BLX      __aeabi_ddiv ; 0x1e18
        0x00000a32:    f001e98c    ....    BLX      __aeabi_d2f ; 0x1d4c
        0x00000a36:    0005        ..      MOVS     r5,r0
        0x00000a38:    6260        `b      STR      r0,[r4,#0x24]
        0x00000a3a:    9815        ..      LDR      r0,[sp,#0x54]
        0x00000a3c:    0039        9.      MOVS     r1,r7
        0x00000a3e:    f001edd8    ....    BLX      _fdiv1 ; 0x25f0
        0x00000a42:    4979        yI      LDR      r1,[pc,#484] ; [0xc28] = 0x44dba000
        0x00000a44:    62a0        .b      STR      r0,[r4,#0x28]
        0x00000a46:    f001edd4    ....    BLX      _fdiv1 ; 0x25f0
        0x00000a4a:    0006        ..      MOVS     r6,r0
        0x00000a4c:    0028        (.      MOVS     r0,r5
        0x00000a4e:    f001eec2    ....    BLX      __aeabi_f2iz ; 0x27d4
        0x00000a52:    0005        ..      MOVS     r5,r0
        0x00000a54:    0030        0.      MOVS     r0,r6
        0x00000a56:    f001eebe    ....    BLX      __aeabi_f2iz ; 0x27d4
        0x00000a5a:    0006        ..      MOVS     r6,r0
        0x00000a5c:    2000        .       MOVS     r0,#0
        0x00000a5e:    a173        s.      ADR      r1,{pc}+0x1ce ; 0xc2c
        0x00000a60:    f000fc06    ....    BL       io_printf ; 0x1270
        0x00000a64:    002a        *.      MOVS     r2,r5
        0x00000a66:    2000        .       MOVS     r0,#0
        0x00000a68:    a17c        |.      ADR      r1,{pc}+0x1f4 ; 0xc5c
        0x00000a6a:    f000fc01    ....    BL       io_printf ; 0x1270
        0x00000a6e:    2000        .       MOVS     r0,#0
        0x00000a70:    a17c        |.      ADR      r1,{pc}+0x1f4 ; 0xc64
        0x00000a72:    f000fbfd    ....    BL       io_printf ; 0x1270
        0x00000a76:    6aa0        .j      LDR      r0,[r4,#0x28]
        0x00000a78:    f001eee6    ....    BLX      __aeabi_f2uiz ; 0x2848
        0x00000a7c:    0002        ..      MOVS     r2,r0
        0x00000a7e:    2000        .       MOVS     r0,#0
        0x00000a80:    a184        ..      ADR      r1,{pc}+0x214 ; 0xc94
        0x00000a82:    f000fbf5    ....    BL       io_printf ; 0x1270
        0x00000a86:    2000        .       MOVS     r0,#0
        0x00000a88:    a184        ..      ADR      r1,{pc}+0x214 ; 0xc9c
        0x00000a8a:    f000fbf1    ....    BL       io_printf ; 0x1270
        0x00000a8e:    0032        2.      MOVS     r2,r6
        0x00000a90:    2000        .       MOVS     r0,#0
        0x00000a92:    a172        r.      ADR      r1,{pc}+0x1ca ; 0xc5c
        0x00000a94:    f000fbec    ....    BL       io_printf ; 0x1270
        0x00000a98:    2000        .       MOVS     r0,#0
        0x00000a9a:    a14a        J.      ADR      r1,{pc}+0x12a ; 0xbc4
        0x00000a9c:    f000fbe8    ....    BL       io_printf ; 0x1270
        0x00000aa0:    b017        ..      ADD      sp,sp,#0x5c
        0x00000aa2:    bdf0        ..      POP      {r4-r7,pc}
    $d
        0x00000aa4:    0000080c    ....    DCD    2060
        0x00000aa8:    000006c0    ....    DCD    1728
        0x00000aac:    5f746e49    Int_    DCD    1601465929
        0x00000ab0:    6f4c5f31    1_Lo    DCD    1867276081
        0x00000ab4:    20203a63    c:      DCD    538983011
        0x00000ab8:    20202020            DCD    538976288
        0x00000abc:    20202020            DCD    538976288
        0x00000ac0:    0a642520     %d.    DCD    174335264
        0x00000ac4:    00000000    ....    DCD    0
        0x00000ac8:    5f746e49    Int_    DCD    1601465929
        0x00000acc:    6f4c5f32    2_Lo    DCD    1867276082
        0x00000ad0:    20203a63    c:      DCD    538983011
        0x00000ad4:    20202020            DCD    538976288
        0x00000ad8:    20202020            DCD    538976288
        0x00000adc:    0a642520     %d.    DCD    174335264
        0x00000ae0:    00000000    ....    DCD    0
        0x00000ae4:    5f746e49    Int_    DCD    1601465929
        0x00000ae8:    6f4c5f33    3_Lo    DCD    1867276083
        0x00000aec:    20203a63    c:      DCD    538983011
        0x00000af0:    20202020            DCD    538976288
        0x00000af4:    20202020            DCD    538976288
        0x00000af8:    0a642520     %d.    DCD    174335264
        0x00000afc:    00000000    ....    DCD    0
        0x00000b00:    6d756e45    Enum    DCD    1836412485
        0x00000b04:    636f4c5f    _Loc    DCD    1668238431
        0x00000b08:    2020203a    :       DCD    538976314
        0x00000b0c:    20202020            DCD    538976288
        0x00000b10:    20202020            DCD    538976288
        0x00000b14:    0a642520     %d.    DCD    174335264
        0x00000b18:    00000000    ....    DCD    0
        0x00000b1c:    5f727453    Str_    DCD    1601336403
        0x00000b20:    6f4c5f31    1_Lo    DCD    1867276081
        0x00000b24:    20203a63    c:      DCD    538983011
        0x00000b28:    20202020            DCD    538976288
        0x00000b2c:    20202020            DCD    538976288
        0x00000b30:    0a732520     %s.    DCD    175318304
        0x00000b34:    00000000    ....    DCD    0
        0x00000b38:    20202020            DCD    538976288
        0x00000b3c:    20202020            DCD    538976288
        0x00000b40:    756f6873    shou    DCD    1970235507
        0x00000b44:    6220646c    ld b    DCD    1646290028
        0x00000b48:    20203a65    e:      DCD    538983013
        0x00000b4c:    52484420     DHR    DCD    1380467744
        0x00000b50:    4f545359    YSTO    DCD    1330926425
        0x00000b54:    5020454e    NE P    DCD    1344292174
        0x00000b58:    52474f52    ROGR    DCD    1380405074
        0x00000b5c:    202c4d41    AM,     DCD    539774273
        0x00000b60:    54532731    1'ST    DCD    1414735665
        0x00000b64:    52545320     STR    DCD    1381258016
        0x00000b68:    0a474e49    ING.    DCD    172445257
        0x00000b6c:    00000000    ....    DCD    0
        0x00000b70:    5f727453    Str_    DCD    1601336403
        0x00000b74:    6f4c5f32    2_Lo    DCD    1867276082
        0x00000b78:    20203a63    c:      DCD    538983011
        0x00000b7c:    20202020            DCD    538976288
        0x00000b80:    20202020            DCD    538976288
        0x00000b84:    0a732520     %s.    DCD    175318304
        0x00000b88:    00000000    ....    DCD    0
        0x00000b8c:    20202020            DCD    538976288
        0x00000b90:    20202020            DCD    538976288
        0x00000b94:    756f6873    shou    DCD    1970235507
        0x00000b98:    6220646c    ld b    DCD    1646290028
        0x00000b9c:    20203a65    e:      DCD    538983013
        0x00000ba0:    52484420     DHR    DCD    1380467744
        0x00000ba4:    4f545359    YSTO    DCD    1330926425
        0x00000ba8:    5020454e    NE P    DCD    1344292174
        0x00000bac:    52474f52    ROGR    DCD    1380405074
        0x00000bb0:    202c4d41    AM,     DCD    539774273
        0x00000bb4:    444e2732    2'ND    DCD    1145972530
        0x00000bb8:    52545320     STR    DCD    1381258016
        0x00000bbc:    0a474e49    ING.    DCD    172445257
        0x00000bc0:    00000000    ....    DCD    0
        0x00000bc4:    0000000a    ....    DCD    10
        0x00000bc8:    7361654d    Meas    DCD    1935762765
        0x00000bcc:    64657275    ured    DCD    1684370037
        0x00000bd0:    6d697420     tim    DCD    1835627552
        0x00000bd4:    6f742065    e to    DCD    1869881445
        0x00000bd8:    6d73206f    o sm    DCD    1836261487
        0x00000bdc:    206c6c61    all     DCD    543976545
        0x00000be0:    6f206f74    to o    DCD    1864396660
        0x00000be4:    69617462    btai    DCD    1767994466
        0x00000be8:    656d206e    n me    DCD    1701650542
        0x00000bec:    6e696e61    anin    DCD    1852403297
        0x00000bf0:    6c756667    gful    DCD    1819633255
        0x00000bf4:    73657220     res    DCD    1936028192
        0x00000bf8:    73746c75    ults    DCD    1937009781
        0x00000bfc:    0000000a    ....    DCD    10
        0x00000c00:    61656c50    Plea    DCD    1634036816
        0x00000c04:    69206573    se i    DCD    1763730803
        0x00000c08:    6572636e    ncre    DCD    1701995374
        0x00000c0c:    20657361    ase     DCD    543519585
        0x00000c10:    626d756e    numb    DCD    1651340654
        0x00000c14:    6f207265    er o    DCD    1864397413
        0x00000c18:    75722066    f ru    DCD    1970413670
        0x00000c1c:    000a736e    ns..    DCD    684910
        0x00000c20:    00000000    ....    DCD    0
        0x00000c24:    412e8480    ...A    DCD    1093567616
        0x00000c28:    44dba000    ...D    DCD    1155244032
        0x00000c2c:    7263694d    Micr    DCD    1919117645
        0x00000c30:    6365736f    osec    DCD    1667593071
        0x00000c34:    73646e6f    onds    DCD    1935961711
        0x00000c38:    726f6620     for    DCD    1919903264
        0x00000c3c:    656e6f20     one    DCD    1701736224
        0x00000c40:    6e757220     run    DCD    1853190688
        0x00000c44:    72687420     thr    DCD    1919448096
        0x00000c48:    6867756f    ough    DCD    1751610735
        0x00000c4c:    72684420     Dhr    DCD    1919435808
        0x00000c50:    6f747379    ysto    DCD    1869902713
        0x00000c54:    203a656e    ne:     DCD    540697966
        0x00000c58:    00000000    ....    DCD    0
        0x00000c5c:    0a206425    %d .    DCD    169894949
        0x00000c60:    00000000    ....    DCD    0
        0x00000c64:    79726844    Dhry    DCD    2037540932
        0x00000c68:    6e6f7473    ston    DCD    1852798067
        0x00000c6c:    70207365    es p    DCD    1881174885
        0x00000c70:    53207265    er S    DCD    1394635365
        0x00000c74:    6e6f6365    econ    DCD    1852793701
        0x00000c78:    20202064    d       DCD    538976356
        0x00000c7c:    20202020            DCD    538976288
        0x00000c80:    20202020            DCD    538976288
        0x00000c84:    20202020            DCD    538976288
        0x00000c88:    20202020            DCD    538976288
        0x00000c8c:    203a2020      :     DCD    540680224
        0x00000c90:    00000000    ....    DCD    0
        0x00000c94:    0a207525    %u .    DCD    169899301
        0x00000c98:    00000000    ....    DCD    0
        0x00000c9c:    50494d44    DMIP    DCD    1346981188
        0x00000ca0:    20202053    S       DCD    538976339
        0x00000ca4:    20202020            DCD    538976288
        0x00000ca8:    20202020            DCD    538976288
        0x00000cac:    20202020            DCD    538976288
        0x00000cb0:    20202020            DCD    538976288
        0x00000cb4:    20202020            DCD    538976288
        0x00000cb8:    20202020            DCD    538976288
        0x00000cbc:    20202020            DCD    538976288
        0x00000cc0:    20202020            DCD    538976288
        0x00000cc4:    203a2020      :     DCD    540680224
        0x00000cc8:    00000000    ....    DCD    0
    $t
    .text
    Func_3
        0x00000ccc:    2802        .(      CMP      r0,#2
        0x00000cce:    d101        ..      BNE      0xcd4 ; Func_3 + 8
        0x00000cd0:    2001        .       MOVS     r0,#1
        0x00000cd2:    4770        pG      BX       lr
        0x00000cd4:    2000        .       MOVS     r0,#0
        0x00000cd6:    4770        pG      BX       lr
    Proc_6
        0x00000cd8:    b530        0.      PUSH     {r4,r5,lr}
        0x00000cda:    2501        .%      MOVS     r5,#1
        0x00000cdc:    2400        .$      MOVS     r4,#0
        0x00000cde:    2203        ."      MOVS     r2,#3
        0x00000ce0:    2802        .(      CMP      r0,#2
        0x00000ce2:    7008        .p      STRB     r0,[r1,#0]
        0x00000ce4:    d000        ..      BEQ      0xce8 ; Proc_6 + 16
        0x00000ce6:    700a        .p      STRB     r2,[r1,#0]
        0x00000ce8:    0003        ..      MOVS     r3,r0
        0x00000cea:    f000ea52    ..R.    BLX      __ARM_common_switch8 ; 0x1190
    $d
        0x00000cee:    0405        ..      DCW    1029
        0x00000cf0:    0e050c06    ....    DCD    235211782
        0x00000cf4:    0005        ..      DCW    5
    $t
        0x00000cf6:    700c        .p      STRB     r4,[r1,#0]
        0x00000cf8:    bd30        0.      POP      {r4,r5,pc}
        0x00000cfa:    4838        8H      LDR      r0,[pc,#224] ; [0xddc] = 0x400010
        0x00000cfc:    6800        .h      LDR      r0,[r0,#0]
        0x00000cfe:    2864        d(      CMP      r0,#0x64
        0x00000d00:    dcf9        ..      BGT      0xcf6 ; Proc_6 + 30
        0x00000d02:    700a        .p      STRB     r2,[r1,#0]
        0x00000d04:    bd30        0.      POP      {r4,r5,pc}
        0x00000d06:    700d        .p      STRB     r5,[r1,#0]
        0x00000d08:    bd30        0.      POP      {r4,r5,pc}
        0x00000d0a:    2002        .       MOVS     r0,#2
        0x00000d0c:    7008        .p      STRB     r0,[r1,#0]
        0x00000d0e:    bd30        0.      POP      {r4,r5,pc}
    Proc_7
        0x00000d10:    1c80        ..      ADDS     r0,r0,#2
        0x00000d12:    1808        ..      ADDS     r0,r1,r0
        0x00000d14:    6010        .`      STR      r0,[r2,#0]
        0x00000d16:    4770        pG      BX       lr
    Proc_8
        0x00000d18:    b570        p.      PUSH     {r4-r6,lr}
        0x00000d1a:    1d54        T.      ADDS     r4,r2,#5
        0x00000d1c:    00a5        ..      LSLS     r5,r4,#2
        0x00000d1e:    182e        ..      ADDS     r6,r5,r0
        0x00000d20:    5143        CQ      STR      r3,[r0,r5]
        0x00000d22:    67b4        .g      STR      r4,[r6,#0x78]
        0x00000d24:    6073        s`      STR      r3,[r6,#4]
        0x00000d26:    26c8        .&      MOVS     r6,#0xc8
        0x00000d28:    4366        fC      MULS     r6,r4,r6
        0x00000d2a:    0022        ".      MOVS     r2,r4
        0x00000d2c:    1c63        c.      ADDS     r3,r4,#1
        0x00000d2e:    1871        q.      ADDS     r1,r6,r1
        0x00000d30:    e002        ..      B        0xd38 ; Proc_8 + 32
        0x00000d32:    0096        ..      LSLS     r6,r2,#2
        0x00000d34:    1c52        R.      ADDS     r2,r2,#1
        0x00000d36:    518c        .Q      STR      r4,[r1,r6]
        0x00000d38:    429a        .B      CMP      r2,r3
        0x00000d3a:    ddfa        ..      BLE      0xd32 ; Proc_8 + 26
        0x00000d3c:    1949        I.      ADDS     r1,r1,r5
        0x00000d3e:    000a        ..      MOVS     r2,r1
        0x00000d40:    3940        @9      SUBS     r1,r1,#0x40
        0x00000d42:    6bcb        .k      LDR      r3,[r1,#0x3c]
        0x00000d44:    1c5b        [.      ADDS     r3,r3,#1
        0x00000d46:    63cb        .c      STR      r3,[r1,#0x3c]
        0x00000d48:    0011        ..      MOVS     r1,r2
        0x00000d4a:    221f        ."      MOVS     r2,#0x1f
        0x00000d4c:    01d2        ..      LSLS     r2,r2,#7
        0x00000d4e:    5940        @Y      LDR      r0,[r0,r5]
        0x00000d50:    1889        ..      ADDS     r1,r1,r2
        0x00000d52:    6208        .b      STR      r0,[r1,#0x20]
        0x00000d54:    4921        !I      LDR      r1,[pc,#132] ; [0xddc] = 0x400010
        0x00000d56:    2005        .       MOVS     r0,#5
        0x00000d58:    6008        .`      STR      r0,[r1,#0]
        0x00000d5a:    bd70        p.      POP      {r4-r6,pc}
    Func_1
        0x00000d5c:    4288        .B      CMP      r0,r1
        0x00000d5e:    d001        ..      BEQ      0xd64 ; Func_1 + 8
        0x00000d60:    2000        .       MOVS     r0,#0
        0x00000d62:    4770        pG      BX       lr
        0x00000d64:    491e        .I      LDR      r1,[pc,#120] ; [0xde0] = 0x400000
        0x00000d66:    7008        .p      STRB     r0,[r1,#0]
        0x00000d68:    2001        .       MOVS     r0,#1
        0x00000d6a:    4770        pG      BX       lr
    spin1_strcmp
        0x00000d6c:    0002        ..      MOVS     r2,r0
        0x00000d6e:    e001        ..      B        0xd74 ; spin1_strcmp + 8
        0x00000d70:    1c52        R.      ADDS     r2,r2,#1
        0x00000d72:    1c49        I.      ADDS     r1,r1,#1
        0x00000d74:    7810        .x      LDRB     r0,[r2,#0]
        0x00000d76:    780b        .x      LDRB     r3,[r1,#0]
        0x00000d78:    1ac0        ..      SUBS     r0,r0,r3
        0x00000d7a:    d102        ..      BNE      0xd82 ; spin1_strcmp + 22
        0x00000d7c:    2b00        .+      CMP      r3,#0
        0x00000d7e:    d1f7        ..      BNE      0xd70 ; spin1_strcmp + 4
        0x00000d80:    4770        pG      BX       lr
        0x00000d82:    2800        .(      CMP      r0,#0
        0x00000d84:    da02        ..      BGE      0xd8c ; spin1_strcmp + 32
        0x00000d86:    2000        .       MOVS     r0,#0
        0x00000d88:    43c0        .C      MVNS     r0,r0
        0x00000d8a:    4770        pG      BX       lr
        0x00000d8c:    2800        .(      CMP      r0,#0
        0x00000d8e:    ddfc        ..      BLE      0xd8a ; spin1_strcmp + 30
        0x00000d90:    2001        .       MOVS     r0,#1
        0x00000d92:    4770        pG      BX       lr
    Func_2
        0x00000d94:    b530        0.      PUSH     {r4,r5,lr}
        0x00000d96:    0003        ..      MOVS     r3,r0
        0x00000d98:    000d        ..      MOVS     r5,r1
        0x00000d9a:    2402        .$      MOVS     r4,#2
        0x00000d9c:    1928        (.      ADDS     r0,r5,r4
        0x00000d9e:    7841        Ax      LDRB     r1,[r0,#1]
        0x00000da0:    5d18        .]      LDRB     r0,[r3,r4]
        0x00000da2:    f7ffffdb    ....    BL       Func_1 ; 0xd5c
        0x00000da6:    2800        .(      CMP      r0,#0
        0x00000da8:    d101        ..      BNE      0xdae ; Func_2 + 26
        0x00000daa:    2241        A"      MOVS     r2,#0x41
        0x00000dac:    1c64        d.      ADDS     r4,r4,#1
        0x00000dae:    2c02        .,      CMP      r4,#2
        0x00000db0:    ddf4        ..      BLE      0xd9c ; Func_2 + 8
        0x00000db2:    0010        ..      MOVS     r0,r2
        0x00000db4:    3857        W8      SUBS     r0,r0,#0x57
        0x00000db6:    2803        .(      CMP      r0,#3
        0x00000db8:    d200        ..      BCS      0xdbc ; Func_2 + 40
        0x00000dba:    2407        .$      MOVS     r4,#7
        0x00000dbc:    2a52        R*      CMP      r2,#0x52
        0x00000dbe:    d101        ..      BNE      0xdc4 ; Func_2 + 48
        0x00000dc0:    2001        .       MOVS     r0,#1
        0x00000dc2:    bd30        0.      POP      {r4,r5,pc}
        0x00000dc4:    0029        ).      MOVS     r1,r5
        0x00000dc6:    0018        ..      MOVS     r0,r3
        0x00000dc8:    f7ffffd0    ....    BL       spin1_strcmp ; 0xd6c
        0x00000dcc:    2800        .(      CMP      r0,#0
        0x00000dce:    dd03        ..      BLE      0xdd8 ; Func_2 + 68
        0x00000dd0:    4802        .H      LDR      r0,[pc,#8] ; [0xddc] = 0x400010
        0x00000dd2:    1de4        ..      ADDS     r4,r4,#7
        0x00000dd4:    6004        .`      STR      r4,[r0,#0]
        0x00000dd6:    e7f3        ..      B        0xdc0 ; Func_2 + 44
        0x00000dd8:    2000        .       MOVS     r0,#0
        0x00000dda:    bd30        0.      POP      {r4,r5,pc}
    $d
        0x00000ddc:    00400010    ..@.    DCD    4194320
        0x00000de0:    00400000    ..@.    DCD    4194304
    $a
    .text
    __aeabi_memcpy4
    __aeabi_memcpy8
    __rt_memcpy_w
        0x00000de4:    e92d4010    .@-.    PUSH     {r4,lr}
        0x00000de8:    e2522020      R.    SUBS     r2,r2,#0x20
        0x00000dec:    3a000005    ...:    BCC      0xe08 ; __aeabi_memcpy4 + 36
        0x00000df0:    e8b15018    .P..    LDM      r1!,{r3,r4,r12,lr}
        0x00000df4:    e2522020      R.    SUBS     r2,r2,#0x20
        0x00000df8:    e8a05018    .P..    STM      r0!,{r3,r4,r12,lr}
        0x00000dfc:    e8b15018    .P..    LDM      r1!,{r3,r4,r12,lr}
        0x00000e00:    e8a05018    .P..    STM      r0!,{r3,r4,r12,lr}
        0x00000e04:    2afffff9    ...*    BCS      0xdf0 ; __aeabi_memcpy4 + 12
        0x00000e08:    e1b0ce02    ....    LSLS     r12,r2,#28
        0x00000e0c:    28b15018    .P.(    LDMCS    r1!,{r3,r4,r12,lr}
        0x00000e10:    28a05018    .P.(    STMCS    r0!,{r3,r4,r12,lr}
        0x00000e14:    48b10018    ...H    LDMMI    r1!,{r3,r4}
        0x00000e18:    48a00018    ...H    STMMI    r0!,{r3,r4}
        0x00000e1c:    e8bd4010    .@..    POP      {r4,lr}
        0x00000e20:    e1b0cf02    ....    LSLS     r12,r2,#30
        0x00000e24:    24913004    .0.$    LDRCS    r3,[r1],#4
        0x00000e28:    24803004    .0.$    STRCS    r3,[r0],#4
        0x00000e2c:    012fff1e    ../.    BXEQ     lr
    _memcpy_lastbytes_aligned
        0x00000e30:    e1b02f82    ./..    LSLS     r2,r2,#31
        0x00000e34:    20d130b2    .0.     LDRHCS   r3,[r1],#2
        0x00000e38:    44d12001    . .D    LDRBMI   r2,[r1],#1
        0x00000e3c:    20c030b2    .0.     STRHCS   r3,[r0],#2
        0x00000e40:    44c02001    . .D    STRBMI   r2,[r0],#1
        0x00000e44:    e12fff1e    ../.    BX       lr
    .text
    __aeabi_idiv
    __aeabi_idivmod
        0x00000e48:    e1903001    .0..    ORRS     r3,r0,r1
        0x00000e4c:    4a000021    !..J    BMI      0xed8 ; __arm_div4 + 52
        0x00000e50:    e3b02000    . ..    MOVS     r2,#0
        0x00000e54:    e07130a0    .0q.    RSBS     r3,r1,r0,LSR #1
        0x00000e58:    3a00001a    ...:    BCC      0xec8 ; __arm_div4 + 36
        0x00000e5c:    e0713220     2q.    RSBS     r3,r1,r0,LSR #4
        0x00000e60:    3a00000f    ...:    BCC      __arm_div4 ; 0xea4
        0x00000e64:    e0713420     4q.    RSBS     r3,r1,r0,LSR #8
        0x00000e68:    3a000001    ...:    BCC      __arm_div8 ; 0xe74
        0x00000e6c:    e3a0c000    ....    MOV      r12,#0
        0x00000e70:    ea000020     ...    B        __arm_div_large ; 0xef8
    __arm_div8
        0x00000e74:    e07133a0    .3q.    RSBS     r3,r1,r0,LSR #7
        0x00000e78:    20400381    ..@     SUBCS    r0,r0,r1,LSL #7
        0x00000e7c:    e0b22002    . ..    ADCS     r2,r2,r2
        0x00000e80:    e0713320     3q.    RSBS     r3,r1,r0,LSR #6
        0x00000e84:    20400301    ..@     SUBCS    r0,r0,r1,LSL #6
        0x00000e88:    e0b22002    . ..    ADCS     r2,r2,r2
        0x00000e8c:    e07132a0    .2q.    RSBS     r3,r1,r0,LSR #5
        0x00000e90:    20400281    ..@     SUBCS    r0,r0,r1,LSL #5
        0x00000e94:    e0b22002    . ..    ADCS     r2,r2,r2
        0x00000e98:    e0713220     2q.    RSBS     r3,r1,r0,LSR #4
        0x00000e9c:    20400201    ..@     SUBCS    r0,r0,r1,LSL #4
        0x00000ea0:    e0b22002    . ..    ADCS     r2,r2,r2
    __arm_div4
        0x00000ea4:    e07131a0    .1q.    RSBS     r3,r1,r0,LSR #3
        0x00000ea8:    20400181    ..@     SUBCS    r0,r0,r1,LSL #3
        0x00000eac:    e0b22002    . ..    ADCS     r2,r2,r2
        0x00000eb0:    e0713120     1q.    RSBS     r3,r1,r0,LSR #2
        0x00000eb4:    20400101    ..@     SUBCS    r0,r0,r1,LSL #2
        0x00000eb8:    e0b22002    . ..    ADCS     r2,r2,r2
        0x00000ebc:    e07130a0    .0q.    RSBS     r3,r1,r0,LSR #1
        0x00000ec0:    20400081    ..@     SUBCS    r0,r0,r1,LSL #1
        0x00000ec4:    e0b22002    . ..    ADCS     r2,r2,r2
        0x00000ec8:    e0501001    ..P.    SUBS     r1,r0,r1
        0x00000ecc:    31a01000    ...1    MOVCC    r1,r0
        0x00000ed0:    e0a20002    ....    ADC      r0,r2,r2
        0x00000ed4:    e12fff1e    ../.    BX       lr
        0x00000ed8:    e2112102    .!..    ANDS     r2,r1,#0x80000000
        0x00000edc:    42611000    ..aB    RSBMI    r1,r1,#0
        0x00000ee0:    e032c040    @.2.    EORS     r12,r2,r0,ASR #32
        0x00000ee4:    22600000    ..`"    RSBCS    r0,r0,#0
        0x00000ee8:    e0713220     2q.    RSBS     r3,r1,r0,LSR #4
        0x00000eec:    3a00001d    ...:    BCC      0xf68 ; __arm_div_large + 112
        0x00000ef0:    e0713420     4q.    RSBS     r3,r1,r0,LSR #8
        0x00000ef4:    3a00000f    ...:    BCC      0xf38 ; __arm_div_large + 64
    __arm_div_large
        0x00000ef8:    e1a01301    ....    LSL      r1,r1,#6
        0x00000efc:    e0713420     4q.    RSBS     r3,r1,r0,LSR #8
        0x00000f00:    e382233f    ?#..    ORR      r2,r2,#0xfc000000
        0x00000f04:    3a00000b    ...:    BCC      0xf38 ; __arm_div_large + 64
        0x00000f08:    e1a01301    ....    LSL      r1,r1,#6
        0x00000f0c:    e0713420     4q.    RSBS     r3,r1,r0,LSR #8
        0x00000f10:    e382263f    ?&..    ORR      r2,r2,#0x3f00000
        0x00000f14:    3a000007    ...:    BCC      0xf38 ; __arm_div_large + 64
        0x00000f18:    e1a01301    ....    LSL      r1,r1,#6
        0x00000f1c:    e0713420     4q.    RSBS     r3,r1,r0,LSR #8
        0x00000f20:    e382293f    ?)..    ORR      r2,r2,#0xfc000
        0x00000f24:    21a01301    ...!    LSLCS    r1,r1,#6
        0x00000f28:    23822c3f    ?,.#    ORRCS    r2,r2,#0x3f00
        0x00000f2c:    e2713000    .0q.    RSBS     r3,r1,#0
        0x00000f30:    2a00001d    ...*    BCS      0xfac ; __arm_div_large + 180
        0x00000f34:    21a01321    !..!    LSRCS    r1,r1,#6
        0x00000f38:    e07133a0    .3q.    RSBS     r3,r1,r0,LSR #7
        0x00000f3c:    20400381    ..@     SUBCS    r0,r0,r1,LSL #7
        0x00000f40:    e0b22002    . ..    ADCS     r2,r2,r2
        0x00000f44:    e0713320     3q.    RSBS     r3,r1,r0,LSR #6
        0x00000f48:    20400301    ..@     SUBCS    r0,r0,r1,LSL #6
        0x00000f4c:    e0b22002    . ..    ADCS     r2,r2,r2
        0x00000f50:    e07132a0    .2q.    RSBS     r3,r1,r0,LSR #5
        0x00000f54:    20400281    ..@     SUBCS    r0,r0,r1,LSL #5
        0x00000f58:    e0b22002    . ..    ADCS     r2,r2,r2
        0x00000f5c:    e0713220     2q.    RSBS     r3,r1,r0,LSR #4
        0x00000f60:    20400201    ..@     SUBCS    r0,r0,r1,LSL #4
        0x00000f64:    e0b22002    . ..    ADCS     r2,r2,r2
        0x00000f68:    e07131a0    .1q.    RSBS     r3,r1,r0,LSR #3
        0x00000f6c:    20400181    ..@     SUBCS    r0,r0,r1,LSL #3
        0x00000f70:    e0b22002    . ..    ADCS     r2,r2,r2
        0x00000f74:    e0713120     1q.    RSBS     r3,r1,r0,LSR #2
        0x00000f78:    20400101    ..@     SUBCS    r0,r0,r1,LSL #2
        0x00000f7c:    e0b22002    . ..    ADCS     r2,r2,r2
        0x00000f80:    2affffeb    ...*    BCS      0xf34 ; __arm_div_large + 60
        0x00000f84:    e07130a0    .0q.    RSBS     r3,r1,r0,LSR #1
        0x00000f88:    20400081    ..@     SUBCS    r0,r0,r1,LSL #1
        0x00000f8c:    e0b22002    . ..    ADCS     r2,r2,r2
        0x00000f90:    e0501001    ..P.    SUBS     r1,r0,r1
        0x00000f94:    31a01000    ...1    MOVCC    r1,r0
        0x00000f98:    e0a20002    ....    ADC      r0,r2,r2
        0x00000f9c:    e1b0cfcc    ....    ASRS     r12,r12,#31
        0x00000fa0:    42600000    ..`B    RSBMI    r0,r0,#0
        0x00000fa4:    22611000    ..a"    RSBCS    r1,r1,#0
        0x00000fa8:    e12fff1e    ../.    BX       lr
        0x00000fac:    e1b0cfcc    ....    ASRS     r12,r12,#31
        0x00000fb0:    42600000    ..`B    RSBMI    r0,r0,#0
        0x00000fb4:    e92d4001    .@-.    PUSH     {r0,lr}
        0x00000fb8:    e3b00000    ....    MOVS     r0,#0
        0x00000fbc:    e1a00000    ....    MOV      r0,r0
        0x00000fc0:    e8bd8002    ....    POP      {r1,pc}
    $t
    alib_aplx
    sark_aplx
        0x00000fc4:    b5f2        ..      PUSH     {r1,r4-r7,lr}
        0x00000fc6:    4905        .I      LDR      r1,aplx_buffer ; [0xfdc] = 0x7fc0
        0x00000fc8:    a605        ..      ADR      r6,{pc}+0x18 ; 0xfe0
        0x00000fca:    2740        @'      MOVS     r7,#0x40
    aplx_l0
        0x00000fcc:    ce3c        <.      LDM      r6!,{r2-r5}
        0x00000fce:    c13c        <.      STM      r1!,{r2-r5}
        0x00000fd0:    3f10        .?      SUBS     r7,r7,#0x10
        0x00000fd2:    d1fb        ..      BNE      aplx_l0 ; 0xfcc
        0x00000fd4:    1c04        ..      ADDS     r4,r0,#0
        0x00000fd6:    393f        ?9      SUBS     r1,r1,#0x3f
        0x00000fd8:    4708        .G      BX       r1
    $d
        0x00000fda:    0000        ..      DCW    0
    aplx_buffer
        0x00000fdc:    00007fc0    ....    DCD    32704
    $t
    aplx_loader
        0x00000fe0:    cc0f        ..      LDM      r4!,{r0-r3}
        0x00000fe2:    2801        .(      CMP      r0,#1
        0x00000fe4:    d008        ..      BEQ      aplx_copy ; 0xff8
        0x00000fe6:    2802        .(      CMP      r0,#2
        0x00000fe8:    d004        ..      BEQ      aplx_rcopy ; 0xff4
        0x00000fea:    2803        .(      CMP      r0,#3
        0x00000fec:    d00b        ..      BEQ      aplx_fill ; 0x1006
        0x00000fee:    2804        .(      CMP      r0,#4
        0x00000ff0:    d011        ..      BEQ      aplx_exec ; 0x1016
        0x00000ff2:    bdf2        ..      POP      {r1,r4-r7,pc}
    aplx_rcopy
        0x00000ff4:    1912        ..      ADDS     r2,r2,r4
        0x00000ff6:    3a10        .:      SUBS     r2,r2,#0x10
    aplx_copy
        0x00000ff8:    cae1        ..      LDM      r2!,{r0,r5-r7}
        0x00000ffa:    c1e1        ..      STM      r1!,{r0,r5-r7}
        0x00000ffc:    cae1        ..      LDM      r2!,{r0,r5-r7}
        0x00000ffe:    c1e1        ..      STM      r1!,{r0,r5-r7}
        0x00001000:    3b20         ;      SUBS     r3,r3,#0x20
        0x00001002:    d8f9        ..      BHI      aplx_copy ; 0xff8
        0x00001004:    e7ec        ..      B        aplx_loader ; 0xfe0
    aplx_fill
        0x00001006:    1c1d        ..      ADDS     r5,r3,#0
        0x00001008:    1c1e        ..      ADDS     r6,r3,#0
        0x0000100a:    1c1f        ..      ADDS     r7,r3,#0
    aplx_l1
        0x0000100c:    c1e8        ..      STM      r1!,{r3,r5-r7}
        0x0000100e:    c1e8        ..      STM      r1!,{r3,r5-r7}
        0x00001010:    3a20         :      SUBS     r2,r2,#0x20
        0x00001012:    d8fb        ..      BHI      aplx_l1 ; 0x100c
        0x00001014:    e7e4        ..      B        aplx_loader ; 0xfe0
    aplx_exec
        0x00001016:    9800        ..      LDR      r0,[sp,#0]
        0x00001018:    4788        .G      BLX      r1
        0x0000101a:    e7e1        ..      B        aplx_loader ; 0xfe0
    $a
    alib_div10
    sark_div10
        0x0000101c:    e241200a    . A.    SUB      r2,r1,#0xa
        0x00001020:    e0411121    !.A.    SUB      r1,r1,r1,LSR #2
        0x00001024:    e0811221    !...    ADD      r1,r1,r1,LSR #4
        0x00001028:    e0811421    !...    ADD      r1,r1,r1,LSR #8
        0x0000102c:    e0811821    !...    ADD      r1,r1,r1,LSR #16
        0x00001030:    e1a011a1    ....    LSR      r1,r1,#3
        0x00001034:    e0813101    .1..    ADD      r3,r1,r1,LSL #2
        0x00001038:    e0522083    . R.    SUBS     r2,r2,r3,LSL #1
        0x0000103c:    52811001    ...R    ADDPL    r1,r1,#1
        0x00001040:    4282200a    . .B    ADDMI    r2,r2,#0xa
        0x00001044:    e8800006    ....    STM      r0,{r1,r2}
        0x00001048:    e12fff1e    ../.    BX       lr
    alib_init_mode
    cpu_init_mode
        0x0000104c:    e10f3000    .0..    MRS      r3,APSR ; formerly CPSR
        0x00001050:    e121f001    ..!.    MSR      CPSR_c,r1
        0x00001054:    e1a0d000    ....    MOV      sp,r0
        0x00001058:    e12ff003    ../.    MSR      CPSR_cxsf,r3
        0x0000105c:    e0400102    ..@.    SUB      r0,r0,r2,LSL #2
        0x00001060:    e12fff1e    ../.    BX       lr
    alib_int_disable
    cpu_int_disable
    spin1_int_disable
        0x00001064:    e10f0000    ....    MRS      r0,APSR ; formerly CPSR
        0x00001068:    e38010c0    ....    ORR      r1,r0,#0xc0
        0x0000106c:    e121f001    ..!.    MSR      CPSR_c,r1
        0x00001070:    e12fff1e    ../.    BX       lr
    alib_int_restore
    cpu_int_restore
    spin1_mode_restore
        0x00001074:    e12ff000    ../.    MSR      CPSR_cxsf,r0
        0x00001078:    e12fff1e    ../.    BX       lr
    alib_lock
    sark_lock_get
        0x0000107c:    e3a0c4e2    ....    MOV      r12,#0xe2000000
        0x00001080:    e08cc100    ....    ADD      r12,r12,r0,LSL #2
        0x00001084:    e10f0000    ....    MRS      r0,APSR ; formerly CPSR
        0x00001088:    e38010c0    ....    ORR      r1,r0,#0xc0
        0x0000108c:    e121f001    ..!.    MSR      CPSR_c,r1
    lg1
        0x00001090:    e59c1100    ....    LDR      r1,[r12,#0x100]
        0x00001094:    e3110102    ....    TST      r1,#0x80000000
        0x00001098:    1afffffc    ....    BNE      lg1 ; 0x1090
        0x0000109c:    e12fff1e    ../.    BX       lr
    sark_lock_free
        0x000010a0:    e3a0c4e2    ....    MOV      r12,#0xe2000000
        0x000010a4:    e08c1101    ....    ADD      r1,r12,r1,LSL #2
        0x000010a8:    e5911180    ....    LDR      r1,[r1,#0x180]
        0x000010ac:    e121f000    ..!.    MSR      CPSR_c,r0
        0x000010b0:    e12fff1e    ../.    BX       lr
    $t
    alib_rts
    sark_config
        0x000010b4:    4770        pG      BX       lr
    sark_bx
        0x000010b6:    4700        .G      BX       r0
    $a
    alib_sark_int
    sark_int_han
        0x000010b8:    e92d500f    .P-.    PUSH     {r0-r3,r12,lr}
        0x000010bc:    e24e0004    ..N.    SUB      r0,lr,#4
        0x000010c0:    e14fc000    ..O.    MRS      r12,SPSR
        0x000010c4:    e321f01f    ..!.    MSR      CPSR_c,#0x1f
        0x000010c8:    e92d5000    .P-.    PUSH     {r12,lr}
        0x000010cc:    fa000218    ....    BLX      sark_int ; 0x1934
        0x000010d0:    e8bd5000    .P..    POP      {r12,lr}
        0x000010d4:    e321f092    ..!.    MSR      CPSR_c,#0x92
        0x000010d8:    e16ff00c    ..o.    MSR      SPSR_cxsf,r12
        0x000010dc:    e3a0042f    /...    MOV      r0,#0x2f000000
        0x000010e0:    e5800030    0...    STR      r0,[r0,#0x30]
        0x000010e4:    e8bd500f    .P..    POP      {r0-r3,r12,lr}
    null_int_han
        0x000010e8:    e25ef004    ..^.    SUBS     pc,lr,#4
    alib_strcpy
    sark_str_cpy
        0x000010ec:    e4d12001    . ..    LDRB     r2,[r1],#1
        0x000010f0:    e3520000    ..R.    CMP      r2,#0
        0x000010f4:    e4c02001    . ..    STRB     r2,[r0],#1
        0x000010f8:    1afffffb    ....    BNE      sark_str_cpy ; 0x10ec
        0x000010fc:    e12fff1e    ../.    BX       lr
    alib_wfi
    cpu_wfi
    spin1_wfi
        0x00001100:    ee070f90    ....    MCR      p15,#0x0,r0,c7,c0,#4
        0x00001104:    e12fff1e    ../.    BX       lr
    alib_word_cpy
    sark_msg_cpy
        0x00001108:    e2800004    ....    ADD      r0,r0,#4
        0x0000110c:    e2811004    ....    ADD      r1,r1,#4
        0x00001110:    e1d120b0    . ..    LDRH     r2,[r1,#0]
        0x00001114:    e2822004    . ..    ADD      r2,r2,#4
    sark_word_cpy
        0x00001118:    e3120003    ....    TST      r2,#3
        0x0000111c:    13c22003    . ..    BICNE    r2,r2,#3
        0x00001120:    12822004    . ..    ADDNE    r2,r2,#4
        0x00001124:    e92d4010    .@-.    PUSH     {r4,lr}
        0x00001128:    e2522020      R.    SUBS     r2,r2,#0x20
        0x0000112c:    3a000005    ...:    BCC      wc2 ; 0x1148
    wc1
        0x00001130:    e8b15018    .P..    LDM      r1!,{r3,r4,r12,lr}
        0x00001134:    e8a05018    .P..    STM      r0!,{r3,r4,r12,lr}
        0x00001138:    e8b15018    .P..    LDM      r1!,{r3,r4,r12,lr}
        0x0000113c:    e8a05018    .P..    STM      r0!,{r3,r4,r12,lr}
        0x00001140:    e2522020      R.    SUBS     r2,r2,#0x20
        0x00001144:    2afffff9    ...*    BCS      wc1 ; 0x1130
    wc2
        0x00001148:    e1b0ce02    ....    LSLS     r12,r2,#28
        0x0000114c:    28b15018    .P.(    LDMCS    r1!,{r3,r4,r12,lr}
        0x00001150:    28a05018    .P.(    STMCS    r0!,{r3,r4,r12,lr}
        0x00001154:    48b10018    ...H    LDMMI    r1!,{r3,r4}
        0x00001158:    48a00018    ...H    STMMI    r0!,{r3,r4}
        0x0000115c:    e1b0cf02    ....    LSLS     r12,r2,#30
        0x00001160:    24913004    .0.$    LDRCS    r3,[r1],#4
        0x00001164:    24803004    .0.$    STRCS    r3,[r0],#4
        0x00001168:    e8bd8010    ....    POP      {r4,pc}
    alib_word_set
    sark_word_set
        0x0000116c:    e1a03001    .0..    MOV      r3,r1
    ws1
        0x00001170:    e2522010    . R.    SUBS     r2,r2,#0x10
        0x00001174:    28a0000a    ...(    STMCS    r0!,{r1,r3}
        0x00001178:    28a0000a    ...(    STMCS    r0!,{r1,r3}
        0x0000117c:    2afffffb    ...*    BCS      ws1 ; 0x1170
        0x00001180:    e1b02e82    ....    LSLS     r2,r2,#29
        0x00001184:    28a0000a    ...(    STMCS    r0!,{r1,r3}
        0x00001188:    48a00002    ...H    STMMI    r0!,{r1}
        0x0000118c:    e12fff1e    ../.    BX       lr
    i.__ARM_common_switch8
    __ARM_common_switch8
        0x00001190:    e55ec001    ..^.    LDRB     r12,[lr,#-1]
        0x00001194:    e153000c    ..S.    CMP      r3,r12
        0x00001198:    37de3003    .0.7    LDRBCC   r3,[lr,r3]
        0x0000119c:    27de300c    .0.'    LDRBCS   r3,[lr,r12]
        0x000011a0:    e08ec083    ....    ADD      r12,lr,r3,LSL #1
        0x000011a4:    e12fff1c    ../.    BX       r12
    $t
    i.event_alloc
    event_alloc
        0x000011a8:    b570        p.      PUSH     {r4-r6,lr}
        0x000011aa:    0006        ..      MOVS     r6,r0
        0x000011ac:    2118        .!      MOVS     r1,#0x18
        0x000011ae:    f000fa7d    ..}.    BL       sark_alloc ; 0x16ac
        0x000011b2:    4d0c        .M      LDR      r5,[pc,#48] ; [0x11e4] = 0x402890
        0x000011b4:    0004        ..      MOVS     r4,r0
        0x000011b6:    d00e        ..      BEQ      0x11d6 ; event_alloc + 46
        0x000011b8:    2218        ."      MOVS     r2,#0x18
        0x000011ba:    0031        1.      MOVS     r1,r6
        0x000011bc:    0020         .      MOVS     r0,r4
        0x000011be:    f000fa81    ....    BL       sark_block_init ; 0x16c4
        0x000011c2:    0006        ..      MOVS     r6,r0
        0x000011c4:    f7ffef4e    ..N.    BLX      cpu_int_disable ; 0x1064
        0x000011c8:    6829        )h      LDR      r1,[r5,#0]
        0x000011ca:    6031        1`      STR      r1,[r6,#0]
        0x000011cc:    602c        ,`      STR      r4,[r5,#0]
        0x000011ce:    f7ffef52    ..R.    BLX      cpu_int_restore ; 0x1074
        0x000011d2:    2001        .       MOVS     r0,#1
        0x000011d4:    bd70        p.      POP      {r4-r6,pc}
        0x000011d6:    6968        hi      LDR      r0,[r5,#0x14]
        0x000011d8:    2108        .!      MOVS     r1,#8
        0x000011da:    4308        .C      ORRS     r0,r0,r1
        0x000011dc:    6168        ha      STR      r0,[r5,#0x14]
        0x000011de:    2000        .       MOVS     r0,#0
        0x000011e0:    bd70        p.      POP      {r4-r6,pc}
    $d
        0x000011e2:    0000        ..      DCW    0
        0x000011e4:    00402890    .(@.    DCD    4204688
    $t
    i.event_pause
    event_pause
        0x000011e8:    b570        p.      PUSH     {r4-r6,lr}
        0x000011ea:    0005        ..      MOVS     r5,r0
        0x000011ec:    4c08        .L      LDR      r4,[pc,#32] ; [0x1210] = 0x402890
        0x000011ee:    d003        ..      BEQ      0x11f8 ; event_pause + 16
        0x000011f0:    2001        .       MOVS     r0,#1
        0x000011f2:    7620         v      STRB     r0,[r4,#0x18]
        0x000011f4:    200a        .       MOVS     r0,#0xa
        0x000011f6:    e002        ..      B        0x11fe ; event_pause + 22
        0x000011f8:    2000        .       MOVS     r0,#0
        0x000011fa:    7620         v      STRB     r0,[r4,#0x18]
        0x000011fc:    2007        .       MOVS     r0,#7
        0x000011fe:    f000faf5    ....    BL       sark_cpu_state ; 0x17ec
        0x00001202:    6b22        "k      LDR      r2,[r4,#0x30]
        0x00001204:    2a00        .*      CMP      r2,#0
        0x00001206:    d002        ..      BEQ      0x120e ; event_pause + 38
        0x00001208:    6b61        ak      LDR      r1,[r4,#0x34]
        0x0000120a:    0028        (.      MOVS     r0,r5
        0x0000120c:    4790        .G      BLX      r2
        0x0000120e:    bd70        p.      POP      {r4-r6,pc}
    $d
        0x00001210:    00402890    .(@.    DCD    4204688
    $t
    i.event_stop
    event_stop
        0x00001214:    4904        .I      LDR      r1,[pc,#16] ; [0x1228] = 0x402890
        0x00001216:    2202        ."      MOVS     r2,#2
        0x00001218:    760a        .v      STRB     r2,[r1,#0x18]
        0x0000121a:    231f        .#      MOVS     r3,#0x1f
        0x0000121c:    6cca        .l      LDR      r2,[r1,#0x4c]
        0x0000121e:    061b        ..      LSLS     r3,r3,#24
        0x00001220:    615a        Za      STR      r2,[r3,#0x14]
        0x00001222:    6388        .c      STR      r0,[r1,#0x38]
        0x00001224:    4770        pG      BX       lr
    $d
        0x00001226:    0000        ..      DCW    0
        0x00001228:    00402890    .(@.    DCD    4204688
    $t
    i.io_buf_init
    io_buf_init
        0x0000122c:    480e        .H      LDR      r0,[pc,#56] ; [0x1268] = 0xe5007f40
        0x0000122e:    b510        ..      PUSH     {r4,lr}
        0x00001230:    6901        .i      LDR      r1,[r0,#0x10]
        0x00001232:    480d        .H      LDR      r0,[pc,#52] ; [0x1268] = 0xe5007f40
        0x00001234:    3110        .1      ADDS     r1,r1,#0x10
        0x00001236:    3080        .0      ADDS     r0,r0,#0x80
        0x00001238:    6900        .i      LDR      r0,[r0,#0x10]
        0x0000123a:    2200        ."      MOVS     r2,#0
        0x0000123c:    2301        .#      MOVS     r3,#1
        0x0000123e:    f000fd21    ..!.    BL       sark_xalloc ; 0x1c84
        0x00001242:    0004        ..      MOVS     r4,r0
        0x00001244:    d102        ..      BNE      0x124c ; io_buf_init + 32
        0x00001246:    200e        .       MOVS     r0,#0xe
        0x00001248:    f7feef70    ..p.    BLX      rt_error ; 0x12c
        0x0000124c:    4806        .H      LDR      r0,[pc,#24] ; [0x1268] = 0xe5007f40
        0x0000124e:    3840        @8      SUBS     r0,r0,#0x40
        0x00001250:    69c1        .i      LDR      r1,[r0,#0x1c]
        0x00001252:    6061        a`      STR      r1,[r4,#4]
        0x00001254:    8b00        ..      LDRH     r0,[r0,#0x18]
        0x00001256:    60a0        .`      STR      r0,[r4,#8]
        0x00001258:    4904        .I      LDR      r1,[pc,#16] ; [0x126c] = 0x40002c
        0x0000125a:    2000        .       MOVS     r0,#0
        0x0000125c:    6020         `      STR      r0,[r4,#0]
        0x0000125e:    6048        H`      STR      r0,[r1,#4]
        0x00001260:    60e0        .`      STR      r0,[r4,#0xc]
        0x00001262:    0020         .      MOVS     r0,r4
        0x00001264:    bd10        ..      POP      {r4,pc}
    $d
        0x00001266:    0000        ..      DCW    0
        0x00001268:    e5007f40    @...    DCD    3842015040
        0x0000126c:    0040002c    ,.@.    DCD    4194348
    $t
    i.io_printf
    io_printf
        0x00001270:    b40f        ..      PUSH     {r0-r3}
        0x00001272:    b5f0        ..      PUSH     {r4-r7,lr}
        0x00001274:    b089        ..      SUB      sp,sp,#0x24
        0x00001276:    980e        ..      LDR      r0,[sp,#0x38]
        0x00001278:    2803        .(      CMP      r0,#3
        0x0000127a:    d073        s.      BEQ      0x1364 ; io_printf + 244
        0x0000127c:    d904        ..      BLS      0x1288 ; io_printf + 24
        0x0000127e:    990e        ..      LDR      r1,[sp,#0x38]
        0x00001280:    2000        .       MOVS     r0,#0
        0x00001282:    7008        .p      STRB     r0,[r1,#0]
        0x00001284:    4977        wI      LDR      r1,[pc,#476] ; [0x1464] = 0x40002c
        0x00001286:    6008        .`      STR      r0,[r1,#0]
        0x00001288:    ac10        ..      ADD      r4,sp,#0x40
        0x0000128a:    980f        ..      LDR      r0,[sp,#0x3c]
        0x0000128c:    7801        .x      LDRB     r1,[r0,#0]
        0x0000128e:    1c40        @.      ADDS     r0,r0,#1
        0x00001290:    2900        .)      CMP      r1,#0
        0x00001292:    900f        ..      STR      r0,[sp,#0x3c]
        0x00001294:    d066        f.      BEQ      0x1364 ; io_printf + 244
        0x00001296:    2925        %)      CMP      r1,#0x25
        0x00001298:    d14d        M.      BNE      0x1336 ; io_printf + 198
        0x0000129a:    7801        .x      LDRB     r1,[r0,#0]
        0x0000129c:    1c40        @.      ADDS     r0,r0,#1
        0x0000129e:    2900        .)      CMP      r1,#0
        0x000012a0:    900f        ..      STR      r0,[sp,#0x3c]
        0x000012a2:    d05f        _.      BEQ      0x1364 ; io_printf + 244
        0x000012a4:    2720         '      MOVS     r7,#0x20
        0x000012a6:    2930        0)      CMP      r1,#0x30
        0x000012a8:    d100        ..      BNE      0x12ac ; io_printf + 60
        0x000012aa:    000f        ..      MOVS     r7,r1
        0x000012ac:    2600        .&      MOVS     r6,#0
        0x000012ae:    e009        ..      B        0x12c4 ; io_printf + 84
        0x000012b0:    200a        .       MOVS     r0,#0xa
        0x000012b2:    4346        FC      MULS     r6,r0,r6
        0x000012b4:    980f        ..      LDR      r0,[sp,#0x3c]
        0x000012b6:    1876        v.      ADDS     r6,r6,r1
        0x000012b8:    7801        .x      LDRB     r1,[r0,#0]
        0x000012ba:    1c40        @.      ADDS     r0,r0,#1
        0x000012bc:    3e30        0>      SUBS     r6,r6,#0x30
        0x000012be:    2900        .)      CMP      r1,#0
        0x000012c0:    900f        ..      STR      r0,[sp,#0x3c]
        0x000012c2:    d04f        O.      BEQ      0x1364 ; io_printf + 244
        0x000012c4:    0008        ..      MOVS     r0,r1
        0x000012c6:    3830        08      SUBS     r0,r0,#0x30
        0x000012c8:    2809        .(      CMP      r0,#9
        0x000012ca:    d9f1        ..      BLS      0x12b0 ; io_printf + 64
        0x000012cc:    2506        .%      MOVS     r5,#6
        0x000012ce:    292e        .)      CMP      r1,#0x2e
        0x000012d0:    d10f        ..      BNE      0x12f2 ; io_printf + 130
        0x000012d2:    2500        .%      MOVS     r5,#0
        0x000012d4:    e003        ..      B        0x12de ; io_printf + 110
        0x000012d6:    200a        .       MOVS     r0,#0xa
        0x000012d8:    4345        EC      MULS     r5,r0,r5
        0x000012da:    186d        m.      ADDS     r5,r5,r1
        0x000012dc:    3d30        0=      SUBS     r5,r5,#0x30
        0x000012de:    980f        ..      LDR      r0,[sp,#0x3c]
        0x000012e0:    7801        .x      LDRB     r1,[r0,#0]
        0x000012e2:    1c40        @.      ADDS     r0,r0,#1
        0x000012e4:    900f        ..      STR      r0,[sp,#0x3c]
        0x000012e6:    0008        ..      MOVS     r0,r1
        0x000012e8:    3830        08      SUBS     r0,r0,#0x30
        0x000012ea:    2809        .(      CMP      r0,#9
        0x000012ec:    d9f3        ..      BLS      0x12d6 ; io_printf + 102
        0x000012ee:    2900        .)      CMP      r1,#0
        0x000012f0:    d038        8.      BEQ      0x1364 ; io_printf + 244
        0x000012f2:    296b        k)      CMP      r1,#0x6b
        0x000012f4:    d071        q.      BEQ      0x13da ; io_printf + 362
        0x000012f6:    dc13        ..      BGT      0x1320 ; io_printf + 176
        0x000012f8:    2963        c)      CMP      r1,#0x63
        0x000012fa:    d01b        ..      BEQ      0x1334 ; io_printf + 196
        0x000012fc:    dc04        ..      BGT      0x1308 ; io_printf + 152
        0x000012fe:    294b        K)      CMP      r1,#0x4b
        0x00001300:    d006        ..      BEQ      0x1310 ; io_printf + 160
        0x00001302:    2952        R)      CMP      r1,#0x52
        0x00001304:    d117        ..      BNE      0x1336 ; io_printf + 198
        0x00001306:    e003        ..      B        0x1310 ; io_printf + 160
        0x00001308:    2964        d)      CMP      r1,#0x64
        0x0000130a:    d034        4.      BEQ      0x1376 ; io_printf + 262
        0x0000130c:    2966        f)      CMP      r1,#0x66
        0x0000130e:    d112        ..      BNE      0x1336 ; io_printf + 198
        0x00001310:    9700        ..      STR      r7,[sp,#0]
        0x00001312:    cc02        ..      LDM      r4!,{r1}
        0x00001314:    980e        ..      LDR      r0,[sp,#0x38]
        0x00001316:    002b        +.      MOVS     r3,r5
        0x00001318:    0032        2.      MOVS     r2,r6
        0x0000131a:    f000f9b5    ....    BL       io_put_ufixed ; 0x1688
        0x0000131e:    e7b4        ..      B        0x128a ; io_printf + 26
        0x00001320:    000b        ..      MOVS     r3,r1
        0x00001322:    3b72        r;      SUBS     r3,r3,#0x72
        0x00001324:    f7ffef34    ..4.    BLX      __ARM_common_switch8 ; 0x1190
    $d
        0x00001328:    070b5909    .Y..    DCD    118184201
        0x0000132c:    6107072e    ...a    DCD    1627850542
        0x00001330:    00078907    ....    DCD    493831
    $t
        0x00001334:    cc02        ..      LDM      r4!,{r1}
        0x00001336:    980e        ..      LDR      r0,[sp,#0x38]
        0x00001338:    f000f898    ....    BL       io_put_char ; 0x146c
        0x0000133c:    e7a5        ..      B        0x128a ; io_printf + 26
        0x0000133e:    cc20         .      LDM      r4!,{r5}
        0x00001340:    0028        (.      MOVS     r0,r5
        0x00001342:    2700        .'      MOVS     r7,#0
        0x00001344:    e000        ..      B        0x1348 ; io_printf + 216
        0x00001346:    1c7f        ..      ADDS     r7,r7,#1
        0x00001348:    7801        .x      LDRB     r1,[r0,#0]
        0x0000134a:    1c40        @.      ADDS     r0,r0,#1
        0x0000134c:    2900        .)      CMP      r1,#0
        0x0000134e:    d1fa        ..      BNE      0x1346 ; io_printf + 214
        0x00001350:    e003        ..      B        0x135a ; io_printf + 234
        0x00001352:    980e        ..      LDR      r0,[sp,#0x38]
        0x00001354:    2120         !      MOVS     r1,#0x20
        0x00001356:    f000f889    ....    BL       io_put_char ; 0x146c
        0x0000135a:    0030        0.      MOVS     r0,r6
        0x0000135c:    1e76        v.      SUBS     r6,r6,#1
        0x0000135e:    42b8        .B      CMP      r0,r7
        0x00001360:    dcf7        ..      BGT      0x1352 ; io_printf + 226
        0x00001362:    e004        ..      B        0x136e ; io_printf + 254
        0x00001364:    e079        y.      B        0x145a ; io_printf + 490
        0x00001366:    980e        ..      LDR      r0,[sp,#0x38]
        0x00001368:    1c6d        m.      ADDS     r5,r5,#1
        0x0000136a:    f000f87f    ....    BL       io_put_char ; 0x146c
        0x0000136e:    7829        )x      LDRB     r1,[r5,#0]
        0x00001370:    2900        .)      CMP      r1,#0
        0x00001372:    d1f8        ..      BNE      0x1366 ; io_printf + 246
        0x00001374:    e789        ..      B        0x128a ; io_printf + 26
        0x00001376:    cc02        ..      LDM      r4!,{r1}
        0x00001378:    980e        ..      LDR      r0,[sp,#0x38]
        0x0000137a:    003b        ;.      MOVS     r3,r7
        0x0000137c:    0032        2.      MOVS     r2,r6
        0x0000137e:    f000f941    ..A.    BL       io_put_int ; 0x1604
        0x00001382:    e782        ..      B        0x128a ; io_printf + 26
        0x00001384:    cc02        ..      LDM      r4!,{r1}
        0x00001386:    2500        .%      MOVS     r5,#0
        0x00001388:    a801        ..      ADD      r0,sp,#4
        0x0000138a:    f7ffee48    ..H.    BLX      sark_div10 ; 0x101c
        0x0000138e:    9902        ..      LDR      r1,[sp,#8]
        0x00001390:    a803        ..      ADD      r0,sp,#0xc
        0x00001392:    3130        01      ADDS     r1,r1,#0x30
        0x00001394:    5541        AU      STRB     r1,[r0,r5]
        0x00001396:    9901        ..      LDR      r1,[sp,#4]
        0x00001398:    1c6d        m.      ADDS     r5,r5,#1
        0x0000139a:    2900        .)      CMP      r1,#0
        0x0000139c:    d1f4        ..      BNE      0x1388 ; io_printf + 280
        0x0000139e:    2d00        .-      CMP      r5,#0
        0x000013a0:    dd04        ..      BLE      0x13ac ; io_printf + 316
        0x000013a2:    1e6d        m.      SUBS     r5,r5,#1
        0x000013a4:    a803        ..      ADD      r0,sp,#0xc
        0x000013a6:    5d40        @]      LDRB     r0,[r0,r5]
        0x000013a8:    2830        0(      CMP      r0,#0x30
        0x000013aa:    d0f8        ..      BEQ      0x139e ; io_printf + 302
        0x000013ac:    1c68        h.      ADDS     r0,r5,#1
        0x000013ae:    9008        ..      STR      r0,[sp,#0x20]
        0x000013b0:    e003        ..      B        0x13ba ; io_printf + 330
        0x000013b2:    980e        ..      LDR      r0,[sp,#0x38]
        0x000013b4:    0039        9.      MOVS     r1,r7
        0x000013b6:    f000f859    ..Y.    BL       io_put_char ; 0x146c
        0x000013ba:    9908        ..      LDR      r1,[sp,#0x20]
        0x000013bc:    0030        0.      MOVS     r0,r6
        0x000013be:    1e76        v.      SUBS     r6,r6,#1
        0x000013c0:    4288        .B      CMP      r0,r1
        0x000013c2:    d8f6        ..      BHI      0x13b2 ; io_printf + 322
        0x000013c4:    ae03        ..      ADD      r6,sp,#0xc
        0x000013c6:    e004        ..      B        0x13d2 ; io_printf + 354
        0x000013c8:    5d71        q]      LDRB     r1,[r6,r5]
        0x000013ca:    980e        ..      LDR      r0,[sp,#0x38]
        0x000013cc:    1e6d        m.      SUBS     r5,r5,#1
        0x000013ce:    f000f84d    ..M.    BL       io_put_char ; 0x146c
        0x000013d2:    2d00        .-      CMP      r5,#0
        0x000013d4:    daf8        ..      BGE      0x13c8 ; io_printf + 344
        0x000013d6:    e758        X.      B        0x128a ; io_printf + 26
        0x000013d8:    e7ff        ..      B        0x13da ; io_printf + 362
        0x000013da:    9700        ..      STR      r7,[sp,#0]
        0x000013dc:    cc02        ..      LDM      r4!,{r1}
        0x000013de:    980e        ..      LDR      r0,[sp,#0x38]
        0x000013e0:    002b        +.      MOVS     r3,r5
        0x000013e2:    0032        2.      MOVS     r2,r6
        0x000013e4:    f000f940    ..@.    BL       io_put_sfixed ; 0x1668
        0x000013e8:    e74f        O.      B        0x128a ; io_printf + 26
        0x000013ea:    cc01        ..      LDM      r4!,{r0}
        0x000013ec:    4b1e        .K      LDR      r3,[pc,#120] ; [0x1468] = 0x2a84
        0x000013ee:    2500        .%      MOVS     r5,#0
        0x000013f0:    a903        ..      ADD      r1,sp,#0xc
        0x000013f2:    0702        ..      LSLS     r2,r0,#28
        0x000013f4:    0f12        ..      LSRS     r2,r2,#28
        0x000013f6:    5c9a        .\      LDRB     r2,[r3,r2]
        0x000013f8:    554a        JU      STRB     r2,[r1,r5]
        0x000013fa:    1c6d        m.      ADDS     r5,r5,#1
        0x000013fc:    0900        ..      LSRS     r0,r0,#4
        0x000013fe:    d1f8        ..      BNE      0x13f2 ; io_printf + 386
        0x00001400:    2d00        .-      CMP      r5,#0
        0x00001402:    dd04        ..      BLE      0x140e ; io_printf + 414
        0x00001404:    1e6d        m.      SUBS     r5,r5,#1
        0x00001406:    a803        ..      ADD      r0,sp,#0xc
        0x00001408:    5d40        @]      LDRB     r0,[r0,r5]
        0x0000140a:    2830        0(      CMP      r0,#0x30
        0x0000140c:    d0f8        ..      BEQ      0x1400 ; io_printf + 400
        0x0000140e:    1c68        h.      ADDS     r0,r5,#1
        0x00001410:    9007        ..      STR      r0,[sp,#0x1c]
        0x00001412:    e003        ..      B        0x141c ; io_printf + 428
        0x00001414:    980e        ..      LDR      r0,[sp,#0x38]
        0x00001416:    0039        9.      MOVS     r1,r7
        0x00001418:    f000f828    ..(.    BL       io_put_char ; 0x146c
        0x0000141c:    9907        ..      LDR      r1,[sp,#0x1c]
        0x0000141e:    0030        0.      MOVS     r0,r6
        0x00001420:    1e76        v.      SUBS     r6,r6,#1
        0x00001422:    4288        .B      CMP      r0,r1
        0x00001424:    d8f6        ..      BHI      0x1414 ; io_printf + 420
        0x00001426:    ae03        ..      ADD      r6,sp,#0xc
        0x00001428:    e004        ..      B        0x1434 ; io_printf + 452
        0x0000142a:    5d71        q]      LDRB     r1,[r6,r5]
        0x0000142c:    980e        ..      LDR      r0,[sp,#0x38]
        0x0000142e:    1e6d        m.      SUBS     r5,r5,#1
        0x00001430:    f000f81c    ....    BL       io_put_char ; 0x146c
        0x00001434:    2d00        .-      CMP      r5,#0
        0x00001436:    daf8        ..      BGE      0x142a ; io_printf + 442
        0x00001438:    e727        '.      B        0x128a ; io_printf + 26
        0x0000143a:    cc20         .      LDM      r4!,{r5}
        0x0000143c:    1e76        v.      SUBS     r6,r6,#1
        0x0000143e:    d499        ..      BMI      0x1374 ; io_printf + 260
        0x00001440:    4f09        .O      LDR      r7,[pc,#36] ; [0x1468] = 0x2a84
        0x00001442:    00b1        ..      LSLS     r1,r6,#2
        0x00001444:    0028        (.      MOVS     r0,r5
        0x00001446:    40c8        .@      LSRS     r0,r0,r1
        0x00001448:    0700        ..      LSLS     r0,r0,#28
        0x0000144a:    0f00        ..      LSRS     r0,r0,#28
        0x0000144c:    5c39        9\      LDRB     r1,[r7,r0]
        0x0000144e:    980e        ..      LDR      r0,[sp,#0x38]
        0x00001450:    f000f80c    ....    BL       io_put_char ; 0x146c
        0x00001454:    1e76        v.      SUBS     r6,r6,#1
        0x00001456:    d5f4        ..      BPL      0x1442 ; io_printf + 466
        0x00001458:    e717        ..      B        0x128a ; io_printf + 26
        0x0000145a:    b009        ..      ADD      sp,sp,#0x24
        0x0000145c:    bcf0        ..      POP      {r4-r7}
        0x0000145e:    bc08        ..      POP      {r3}
        0x00001460:    b004        ..      ADD      sp,sp,#0x10
        0x00001462:    4718        .G      BX       r3
    $d
        0x00001464:    0040002c    ,.@.    DCD    4194348
        0x00001468:    00002a84    .*..    DCD    10884
    $t
    i.io_put_char
    io_put_char
        0x0000146c:    b5f8        ..      PUSH     {r3-r7,lr}
        0x0000146e:    000d        ..      MOVS     r5,r1
        0x00001470:    060e        ..      LSLS     r6,r1,#24
        0x00001472:    4f33        3O      LDR      r7,[pc,#204] ; [0x1540] = 0x40002c
        0x00001474:    0e36        6.      LSRS     r6,r6,#24
        0x00001476:    2803        .(      CMP      r0,#3
        0x00001478:    d906        ..      BLS      0x1488 ; io_put_char + 28
        0x0000147a:    6839        9h      LDR      r1,[r7,#0]
        0x0000147c:    5446        FT      STRB     r6,[r0,r1]
        0x0000147e:    1c49        I.      ADDS     r1,r1,#1
        0x00001480:    2200        ."      MOVS     r2,#0
        0x00001482:    6039        9`      STR      r1,[r7,#0]
        0x00001484:    5442        BT      STRB     r2,[r0,r1]
        0x00001486:    bdf8        ..      POP      {r3-r7,pc}
        0x00001488:    2800        .(      CMP      r0,#0
        0x0000148a:    d136        6.      BNE      0x14fa ; io_put_char + 142
        0x0000148c:    68b8        .h      LDR      r0,[r7,#8]
        0x0000148e:    2800        .(      CMP      r0,#0
        0x00001490:    d11c        ..      BNE      0x14cc ; io_put_char + 96
        0x00001492:    21ff        .!      MOVS     r1,#0xff
        0x00001494:    3125        %1      ADDS     r1,r1,#0x25
        0x00001496:    2001        .       MOVS     r0,#1
        0x00001498:    f000f908    ....    BL       sark_alloc ; 0x16ac
        0x0000149c:    0004        ..      MOVS     r4,r0
        0x0000149e:    d102        ..      BNE      0x14a6 ; io_put_char + 58
        0x000014a0:    200e        .       MOVS     r0,#0xe
        0x000014a2:    f7feee44    ..D.    BLX      rt_error ; 0x12c
        0x000014a6:    2007        .       MOVS     r0,#7
        0x000014a8:    7220         r      STRB     r0,[r4,#8]
        0x000014aa:    2000        .       MOVS     r0,#0
        0x000014ac:    7260        `r      STRB     r0,[r4,#9]
        0x000014ae:    4925        %I      LDR      r1,[pc,#148] ; [0x1544] = 0xe5007f00
        0x000014b0:    20ff        .       MOVS     r0,#0xff
        0x000014b2:    72a0        .r      STRB     r0,[r4,#0xa]
        0x000014b4:    8888        ..      LDRH     r0,[r1,#4]
        0x000014b6:    81a0        ..      STRH     r0,[r4,#0xc]
        0x000014b8:    4823        #H      LDR      r0,[pc,#140] ; [0x1548] = 0x402854
        0x000014ba:    6800        .h      LDR      r0,[r0,#0]
        0x000014bc:    72e0        .r      STRB     r0,[r4,#0xb]
        0x000014be:    8808        ..      LDRH     r0,[r1,#0]
        0x000014c0:    81e0        ..      STRH     r0,[r4,#0xe]
        0x000014c2:    2040        @       MOVS     r0,#0x40
        0x000014c4:    8220         .      STRH     r0,[r4,#0x10]
        0x000014c6:    200c        .       MOVS     r0,#0xc
        0x000014c8:    80a0        ..      STRH     r0,[r4,#4]
        0x000014ca:    60bc        .`      STR      r4,[r7,#8]
        0x000014cc:    68b8        .h      LDR      r0,[r7,#8]
        0x000014ce:    8881        ..      LDRH     r1,[r0,#4]
        0x000014d0:    0002        ..      MOVS     r2,r0
        0x000014d2:    1c4b        K.      ADDS     r3,r1,#1
        0x000014d4:    3208        .2      ADDS     r2,r2,#8
        0x000014d6:    8083        ..      STRH     r3,[r0,#4]
        0x000014d8:    2d0a        .-      CMP      r5,#0xa
        0x000014da:    5456        VT      STRB     r6,[r2,r1]
        0x000014dc:    d006        ..      BEQ      0x14ec ; io_put_char + 128
        0x000014de:    2d00        .-      CMP      r5,#0
        0x000014e0:    d004        ..      BEQ      0x14ec ; io_put_char + 128
        0x000014e2:    8882        ..      LDRH     r2,[r0,#4]
        0x000014e4:    0011        ..      MOVS     r1,r2
        0x000014e6:    39ff        .9      SUBS     r1,r1,#0xff
        0x000014e8:    390d        .9      SUBS     r1,r1,#0xd
        0x000014ea:    d1cc        ..      BNE      0x1486 ; io_put_char + 26
        0x000014ec:    210a        .!      MOVS     r1,#0xa
        0x000014ee:    f000fafb    ....    BL       sark_msg_send ; 0x1ae8
        0x000014f2:    68b9        .h      LDR      r1,[r7,#8]
        0x000014f4:    200c        .       MOVS     r0,#0xc
        0x000014f6:    8088        ..      STRH     r0,[r1,#4]
        0x000014f8:    bdf8        ..      POP      {r3-r7,pc}
        0x000014fa:    2802        .(      CMP      r0,#2
        0x000014fc:    d1fc        ..      BNE      0x14f8 ; io_put_char + 140
        0x000014fe:    68f8        .h      LDR      r0,[r7,#0xc]
        0x00001500:    2800        .(      CMP      r0,#0
        0x00001502:    d105        ..      BNE      0x1510 ; io_put_char + 164
        0x00001504:    f7fffe92    ....    BL       io_buf_init ; 0x122c
        0x00001508:    490f        .I      LDR      r1,[pc,#60] ; [0x1548] = 0x402854
        0x0000150a:    69c9        .i      LDR      r1,[r1,#0x1c]
        0x0000150c:    6588        .e      STR      r0,[r1,#0x58]
        0x0000150e:    60f8        .`      STR      r0,[r7,#0xc]
        0x00001510:    0001        ..      MOVS     r1,r0
        0x00001512:    6878        xh      LDR      r0,[r7,#4]
        0x00001514:    180a        ..      ADDS     r2,r1,r0
        0x00001516:    7416        .t      STRB     r6,[r2,#0x10]
        0x00001518:    4a0a        .J      LDR      r2,[pc,#40] ; [0x1544] = 0xe5007f00
        0x0000151a:    1c40        @.      ADDS     r0,r0,#1
        0x0000151c:    3240        @2      ADDS     r2,r2,#0x40
        0x0000151e:    6078        x`      STR      r0,[r7,#4]
        0x00001520:    6912        .i      LDR      r2,[r2,#0x10]
        0x00001522:    4282        .B      CMP      r2,r0
        0x00001524:    d106        ..      BNE      0x1534 ; io_put_char + 200
        0x00001526:    60c8        .`      STR      r0,[r1,#0xc]
        0x00001528:    f7fffe80    ....    BL       io_buf_init ; 0x122c
        0x0000152c:    68f9        .h      LDR      r1,[r7,#0xc]
        0x0000152e:    6008        .`      STR      r0,[r1,#0]
        0x00001530:    60f8        .`      STR      r0,[r7,#0xc]
        0x00001532:    bdf8        ..      POP      {r3-r7,pc}
        0x00001534:    2d0a        .-      CMP      r5,#0xa
        0x00001536:    d001        ..      BEQ      0x153c ; io_put_char + 208
        0x00001538:    2d00        .-      CMP      r5,#0
        0x0000153a:    d1fa        ..      BNE      0x1532 ; io_put_char + 198
        0x0000153c:    60c8        .`      STR      r0,[r1,#0xc]
        0x0000153e:    bdf8        ..      POP      {r3-r7,pc}
    $d
        0x00001540:    0040002c    ,.@.    DCD    4194348
        0x00001544:    e5007f00    ....    DCD    3842014976
        0x00001548:    00402854    T(@.    DCD    4204628
    $t
    i.io_put_fixed
    io_put_fixed
        0x0000154c:    b5ff        ..      PUSH     {r0-r7,lr}
        0x0000154e:    b089        ..      SUB      sp,sp,#0x24
        0x00001550:    2400        .$      MOVS     r4,#0
        0x00001552:    0015        ..      MOVS     r5,r2
        0x00001554:    468c        .F      MOV      r12,r1
        0x00001556:    2b0c        .+      CMP      r3,#0xc
        0x00001558:    4660        `F      MOV      r0,r12
        0x0000155a:    ae02        ..      ADD      r6,sp,#8
        0x0000155c:    d909        ..      BLS      0x1572 ; io_put_fixed + 38
        0x0000155e:    230c        .#      MOVS     r3,#0xc
        0x00001560:    0400        ..      LSLS     r0,r0,#16
        0x00001562:    0c00        ..      LSRS     r0,r0,#16
        0x00001564:    210a        .!      MOVS     r1,#0xa
        0x00001566:    4348        HC      MULS     r0,r1,r0
        0x00001568:    1c64        d.      ADDS     r4,r4,#1
        0x0000156a:    0c01        ..      LSRS     r1,r0,#16
        0x0000156c:    3130        01      ADDS     r1,r1,#0x30
        0x0000156e:    1b1a        ..      SUBS     r2,r3,r4
        0x00001570:    54b1        .T      STRB     r1,[r6,r2]
        0x00001572:    429c        .B      CMP      r4,r3
        0x00001574:    d3f4        ..      BCC      0x1560 ; io_put_fixed + 20
        0x00001576:    0400        ..      LSLS     r0,r0,#16
        0x00001578:    0c00        ..      LSRS     r0,r0,#16
        0x0000157a:    210a        .!      MOVS     r1,#0xa
        0x0000157c:    4348        HC      MULS     r0,r1,r0
        0x0000157e:    2201        ."      MOVS     r2,#1
        0x00001580:    0c00        ..      LSRS     r0,r0,#16
        0x00001582:    2804        .(      CMP      r0,#4
        0x00001584:    d800        ..      BHI      0x1588 ; io_put_fixed + 60
        0x00001586:    2200        ."      MOVS     r2,#0
        0x00001588:    2000        .       MOVS     r0,#0
        0x0000158a:    2730        0'      MOVS     r7,#0x30
        0x0000158c:    e004        ..      B        0x1598 ; io_put_fixed + 76
        0x0000158e:    5c31        1\      LDRB     r1,[r6,r0]
        0x00001590:    2939        9)      CMP      r1,#0x39
        0x00001592:    d30e        ..      BCC      0x15b2 ; io_put_fixed + 102
        0x00001594:    5437        7T      STRB     r7,[r6,r0]
        0x00001596:    1c40        @.      ADDS     r0,r0,#1
        0x00001598:    2a00        .*      CMP      r2,#0
        0x0000159a:    d001        ..      BEQ      0x15a0 ; io_put_fixed + 84
        0x0000159c:    4298        .B      CMP      r0,r3
        0x0000159e:    d3f6        ..      BCC      0x158e ; io_put_fixed + 66
        0x000015a0:    2b00        .+      CMP      r3,#0
        0x000015a2:    d002        ..      BEQ      0x15aa ; io_put_fixed + 94
        0x000015a4:    202e        .       MOVS     r0,#0x2e
        0x000015a6:    5530        0U      STRB     r0,[r6,r4]
        0x000015a8:    1c64        d.      ADDS     r4,r4,#1
        0x000015aa:    4660        `F      MOV      r0,r12
        0x000015ac:    0c00        ..      LSRS     r0,r0,#16
        0x000015ae:    1881        ..      ADDS     r1,r0,r2
        0x000015b0:    e004        ..      B        0x15bc ; io_put_fixed + 112
        0x000015b2:    5c31        1\      LDRB     r1,[r6,r0]
        0x000015b4:    1c49        I.      ADDS     r1,r1,#1
        0x000015b6:    2200        ."      MOVS     r2,#0
        0x000015b8:    5431        1T      STRB     r1,[r6,r0]
        0x000015ba:    e7f1        ..      B        0x15a0 ; io_put_fixed + 84
        0x000015bc:    4668        hF      MOV      r0,sp
        0x000015be:    f7ffed2e    ....    BLX      sark_div10 ; 0x101c
        0x000015c2:    9801        ..      LDR      r0,[sp,#4]
        0x000015c4:    3030        00      ADDS     r0,r0,#0x30
        0x000015c6:    5530        0U      STRB     r0,[r6,r4]
        0x000015c8:    9900        ..      LDR      r1,[sp,#0]
        0x000015ca:    1c64        d.      ADDS     r4,r4,#1
        0x000015cc:    2900        .)      CMP      r1,#0
        0x000015ce:    d1f5        ..      BNE      0x15bc ; io_put_fixed + 112
        0x000015d0:    9813        ..      LDR      r0,[sp,#0x4c]
        0x000015d2:    2800        .(      CMP      r0,#0
        0x000015d4:    d002        ..      BEQ      0x15dc ; io_put_fixed + 144
        0x000015d6:    212d        -!      MOVS     r1,#0x2d
        0x000015d8:    5531        1U      STRB     r1,[r6,r4]
        0x000015da:    1c64        d.      ADDS     r4,r4,#1
        0x000015dc:    1c67        g.      ADDS     r7,r4,#1
        0x000015de:    e003        ..      B        0x15e8 ; io_put_fixed + 156
        0x000015e0:    9912        ..      LDR      r1,[sp,#0x48]
        0x000015e2:    9809        ..      LDR      r0,[sp,#0x24]
        0x000015e4:    f7ffff42    ..B.    BL       io_put_char ; 0x146c
        0x000015e8:    0028        (.      MOVS     r0,r5
        0x000015ea:    1e6d        m.      SUBS     r5,r5,#1
        0x000015ec:    42b8        .B      CMP      r0,r7
        0x000015ee:    d8f7        ..      BHI      0x15e0 ; io_put_fixed + 148
        0x000015f0:    e004        ..      B        0x15fc ; io_put_fixed + 176
        0x000015f2:    1e64        d.      SUBS     r4,r4,#1
        0x000015f4:    5d31        1]      LDRB     r1,[r6,r4]
        0x000015f6:    9809        ..      LDR      r0,[sp,#0x24]
        0x000015f8:    f7ffff38    ..8.    BL       io_put_char ; 0x146c
        0x000015fc:    2c00        .,      CMP      r4,#0
        0x000015fe:    dcf8        ..      BGT      0x15f2 ; io_put_fixed + 166
        0x00001600:    b00d        ..      ADD      sp,sp,#0x34
        0x00001602:    bdf0        ..      POP      {r4-r7,pc}
    i.io_put_int
    io_put_int
        0x00001604:    b5ff        ..      PUSH     {r0-r7,lr}
        0x00001606:    b087        ..      SUB      sp,sp,#0x1c
        0x00001608:    2400        .$      MOVS     r4,#0
        0x0000160a:    0015        ..      MOVS     r5,r2
        0x0000160c:    0026        &.      MOVS     r6,r4
        0x0000160e:    2900        .)      CMP      r1,#0
        0x00001610:    da01        ..      BGE      0x1616 ; io_put_int + 18
        0x00001612:    4249        IB      RSBS     r1,r1,#0
        0x00001614:    262d        -&      MOVS     r6,#0x2d
        0x00001616:    af03        ..      ADD      r7,sp,#0xc
        0x00001618:    a801        ..      ADD      r0,sp,#4
        0x0000161a:    f7ffed00    ....    BLX      sark_div10 ; 0x101c
        0x0000161e:    9802        ..      LDR      r0,[sp,#8]
        0x00001620:    3030        00      ADDS     r0,r0,#0x30
        0x00001622:    5538        8U      STRB     r0,[r7,r4]
        0x00001624:    9901        ..      LDR      r1,[sp,#4]
        0x00001626:    1c64        d.      ADDS     r4,r4,#1
        0x00001628:    2900        .)      CMP      r1,#0
        0x0000162a:    d1f5        ..      BNE      0x1618 ; io_put_int + 20
        0x0000162c:    2c00        .,      CMP      r4,#0
        0x0000162e:    dd03        ..      BLE      0x1638 ; io_put_int + 52
        0x00001630:    1e64        d.      SUBS     r4,r4,#1
        0x00001632:    5d38        8]      LDRB     r0,[r7,r4]
        0x00001634:    2830        0(      CMP      r0,#0x30
        0x00001636:    d0f9        ..      BEQ      0x162c ; io_put_int + 40
        0x00001638:    2e00        ..      CMP      r6,#0
        0x0000163a:    d001        ..      BEQ      0x1640 ; io_put_int + 60
        0x0000163c:    1c64        d.      ADDS     r4,r4,#1
        0x0000163e:    553e        >U      STRB     r6,[r7,r4]
        0x00001640:    1c66        f.      ADDS     r6,r4,#1
        0x00001642:    e003        ..      B        0x164c ; io_put_int + 72
        0x00001644:    9807        ..      LDR      r0,[sp,#0x1c]
        0x00001646:    2120         !      MOVS     r1,#0x20
        0x00001648:    f7ffff10    ....    BL       io_put_char ; 0x146c
        0x0000164c:    0028        (.      MOVS     r0,r5
        0x0000164e:    1e6d        m.      SUBS     r5,r5,#1
        0x00001650:    42b0        .B      CMP      r0,r6
        0x00001652:    d8f7        ..      BHI      0x1644 ; io_put_int + 64
        0x00001654:    e004        ..      B        0x1660 ; io_put_int + 92
        0x00001656:    5d39        9]      LDRB     r1,[r7,r4]
        0x00001658:    9807        ..      LDR      r0,[sp,#0x1c]
        0x0000165a:    1e64        d.      SUBS     r4,r4,#1
        0x0000165c:    f7ffff06    ....    BL       io_put_char ; 0x146c
        0x00001660:    2c00        .,      CMP      r4,#0
        0x00001662:    daf8        ..      BGE      0x1656 ; io_put_int + 82
        0x00001664:    b00b        ..      ADD      sp,sp,#0x2c
        0x00001666:    bdf0        ..      POP      {r4-r7,pc}
    i.io_put_sfixed
    io_put_sfixed
        0x00001668:    b57c        |.      PUSH     {r2-r6,lr}
        0x0000166a:    000c        ..      MOVS     r4,r1
        0x0000166c:    0015        ..      MOVS     r5,r2
        0x0000166e:    9906        ..      LDR      r1,[sp,#0x18]
        0x00001670:    0fe2        ..      LSRS     r2,r4,#31
        0x00001672:    9100        ..      STR      r1,[sp,#0]
        0x00001674:    4261        aB      RSBS     r1,r4,#0
        0x00001676:    2c00        .,      CMP      r4,#0
        0x00001678:    9201        ..      STR      r2,[sp,#4]
        0x0000167a:    db00        ..      BLT      0x167e ; io_put_sfixed + 22
        0x0000167c:    0021        !.      MOVS     r1,r4
        0x0000167e:    0049        I.      LSLS     r1,r1,#1
        0x00001680:    002a        *.      MOVS     r2,r5
        0x00001682:    f7ffff63    ..c.    BL       io_put_fixed ; 0x154c
        0x00001686:    bd7c        |.      POP      {r2-r6,pc}
    i.io_put_ufixed
    io_put_ufixed
        0x00001688:    b57c        |.      PUSH     {r2-r6,lr}
        0x0000168a:    000c        ..      MOVS     r4,r1
        0x0000168c:    0015        ..      MOVS     r5,r2
        0x0000168e:    9906        ..      LDR      r1,[sp,#0x18]
        0x00001690:    2200        ."      MOVS     r2,#0
        0x00001692:    9201        ..      STR      r2,[sp,#4]
        0x00001694:    9100        ..      STR      r1,[sp,#0]
        0x00001696:    002a        *.      MOVS     r2,r5
        0x00001698:    0021        !.      MOVS     r1,r4
        0x0000169a:    f7ffff57    ..W.    BL       io_put_fixed ; 0x154c
        0x0000169e:    bd7c        |.      POP      {r2-r6,pc}
    i.rte_handler
    rte_handler
        0x000016a0:    4901        .I      LDR      r1,[pc,#4] ; [0x16a8] = 0xe5007f20
        0x000016a2:    2008        .       MOVS     r0,#8
        0x000016a4:    72c8        .r      STRB     r0,[r1,#0xb]
        0x000016a6:    4770        pG      BX       lr
    $d
        0x000016a8:    e5007f20     ...    DCD    3842015008
    $t
    i.sark_alloc
    sark_alloc
        0x000016ac:    4341        AC      MULS     r1,r0,r1
        0x000016ae:    4804        .H      LDR      r0,[pc,#16] ; [0x16c0] = 0x402854
        0x000016b0:    2200        ."      MOVS     r2,#0
        0x000016b2:    b510        ..      PUSH     {r4,lr}
        0x000016b4:    6980        .i      LDR      r0,[r0,#0x18]
        0x000016b6:    0013        ..      MOVS     r3,r2
        0x000016b8:    f000fae4    ....    BL       sark_xalloc ; 0x1c84
        0x000016bc:    bd10        ..      POP      {r4,pc}
    $d
        0x000016be:    0000        ..      DCW    0
        0x000016c0:    00402854    T(@.    DCD    4204628
    $t
    i.sark_block_init
    sark_block_init
        0x000016c4:    0003        ..      MOVS     r3,r0
        0x000016c6:    1e49        I.      SUBS     r1,r1,#1
        0x000016c8:    d002        ..      BEQ      0x16d0 ; sark_block_init + 12
        0x000016ca:    1880        ..      ADDS     r0,r0,r2
        0x000016cc:    6018        .`      STR      r0,[r3,#0]
        0x000016ce:    e7f9        ..      B        sark_block_init ; 0x16c4
        0x000016d0:    2100        .!      MOVS     r1,#0
        0x000016d2:    6019        .`      STR      r1,[r3,#0]
        0x000016d4:    4770        pG      BX       lr
    i.sark_cmd_fill
    sark_cmd_fill
        0x000016d6:    3014        .0      ADDS     r0,r0,#0x14
        0x000016d8:    b510        ..      PUSH     {r4,lr}
        0x000016da:    c807        ..      LDM      r0,{r0-r2}
        0x000016dc:    f7ffed46    ..F.    BLX      sark_word_set ; 0x116c
        0x000016e0:    2000        .       MOVS     r0,#0
        0x000016e2:    bd10        ..      POP      {r4,pc}
    i.sark_cmd_read
    sark_cmd_read
        0x000016e4:    b570        p.      PUSH     {r4-r6,lr}
        0x000016e6:    0003        ..      MOVS     r3,r0
        0x000016e8:    6980        .i      LDR      r0,[r0,#0x18]
        0x000016ea:    22ff        ."      MOVS     r2,#0xff
        0x000016ec:    69d9        .i      LDR      r1,[r3,#0x1c]
        0x000016ee:    3201        .2      ADDS     r2,#1
        0x000016f0:    4290        .B      CMP      r0,r2
        0x000016f2:    d801        ..      BHI      0x16f8 ; sark_cmd_read + 20
        0x000016f4:    2902        .)      CMP      r1,#2
        0x000016f6:    d903        ..      BLS      0x1700 ; sark_cmd_read + 28
        0x000016f8:    2084        .       MOVS     r0,#0x84
        0x000016fa:    8218        ..      STRH     r0,[r3,#0x10]
        0x000016fc:    2000        .       MOVS     r0,#0
        0x000016fe:    bd70        p.      POP      {r4-r6,pc}
        0x00001700:    695c        \i      LDR      r4,[r3,#0x14]
        0x00001702:    3314        .3      ADDS     r3,r3,#0x14
        0x00001704:    2900        .)      CMP      r1,#0
        0x00001706:    d106        ..      BNE      0x1716 ; sark_cmd_read + 50
        0x00001708:    e002        ..      B        0x1710 ; sark_cmd_read + 44
        0x0000170a:    5c62        b\      LDRB     r2,[r4,r1]
        0x0000170c:    545a        ZT      STRB     r2,[r3,r1]
        0x0000170e:    1c49        I.      ADDS     r1,r1,#1
        0x00001710:    4281        .B      CMP      r1,r0
        0x00001712:    d3fa        ..      BCC      0x170a ; sark_cmd_read + 38
        0x00001714:    bd70        p.      POP      {r4-r6,pc}
        0x00001716:    2901        .)      CMP      r1,#1
        0x00001718:    d109        ..      BNE      0x172e ; sark_cmd_read + 74
        0x0000171a:    2100        .!      MOVS     r1,#0
        0x0000171c:    0845        E.      LSRS     r5,r0,#1
        0x0000171e:    e003        ..      B        0x1728 ; sark_cmd_read + 68
        0x00001720:    004a        J.      LSLS     r2,r1,#1
        0x00001722:    5aa6        .Z      LDRH     r6,[r4,r2]
        0x00001724:    1c49        I.      ADDS     r1,r1,#1
        0x00001726:    529e        .R      STRH     r6,[r3,r2]
        0x00001728:    428d        .B      CMP      r5,r1
        0x0000172a:    d8f9        ..      BHI      0x1720 ; sark_cmd_read + 60
        0x0000172c:    bd70        p.      POP      {r4-r6,pc}
        0x0000172e:    2100        .!      MOVS     r1,#0
        0x00001730:    0885        ..      LSRS     r5,r0,#2
        0x00001732:    e003        ..      B        0x173c ; sark_cmd_read + 88
        0x00001734:    008a        ..      LSLS     r2,r1,#2
        0x00001736:    58a6        .X      LDR      r6,[r4,r2]
        0x00001738:    1c49        I.      ADDS     r1,r1,#1
        0x0000173a:    509e        .P      STR      r6,[r3,r2]
        0x0000173c:    428d        .B      CMP      r5,r1
        0x0000173e:    d8f9        ..      BHI      0x1734 ; sark_cmd_read + 80
        0x00001740:    bd70        p.      POP      {r4-r6,pc}
        0x00001742:    0000        ..      MOVS     r0,r0
    i.sark_cmd_ver
    sark_cmd_ver
        0x00001744:    490a        .I      LDR      r1,[pc,#40] ; [0x1770] = 0xe5007f00
        0x00001746:    b510        ..      PUSH     {r4,lr}
        0x00001748:    8809        ..      LDRH     r1,[r1,#0]
        0x0000174a:    040a        ..      LSLS     r2,r1,#16
        0x0000174c:    4909        .I      LDR      r1,[pc,#36] ; [0x1774] = 0x402854
        0x0000174e:    684b        Kh      LDR      r3,[r1,#4]
        0x00001750:    6809        .h      LDR      r1,[r1,#0]
        0x00001752:    021b        ..      LSLS     r3,r3,#8
        0x00001754:    18d2        ..      ADDS     r2,r2,r3
        0x00001756:    1851        Q.      ADDS     r1,r2,r1
        0x00001758:    6141        Aa      STR      r1,[r0,#0x14]
        0x0000175a:    4907        .I      LDR      r1,[pc,#28] ; [0x1778] = 0x860100
        0x0000175c:    6181        .a      STR      r1,[r0,#0x18]
        0x0000175e:    4907        .I      LDR      r1,[pc,#28] ; [0x177c] = 0x2a70
        0x00001760:    6809        .h      LDR      r1,[r1,#0]
        0x00001762:    61c1        .a      STR      r1,[r0,#0x1c]
        0x00001764:    3020         0      ADDS     r0,r0,#0x20
        0x00001766:    a106        ..      ADR      r1,{pc}+0x1a ; 0x1780
        0x00001768:    f7ffecc0    ....    BLX      sark_str_cpy ; 0x10ec
        0x0000176c:    201b        .       MOVS     r0,#0x1b
        0x0000176e:    bd10        ..      POP      {r4,pc}
    $d
        0x00001770:    e5007f00    ....    DCD    3842014976
        0x00001774:    00402854    T(@.    DCD    4204628
        0x00001778:    00860100    ....    DCD    8782080
        0x0000177c:    00002a70    p*..    DCD    10864
        0x00001780:    4b524153    SARK    DCD    1263681875
        0x00001784:    6970532f    /Spi    DCD    1768969007
        0x00001788:    6b614e4e    NNak    DCD    1801539150
        0x0000178c:    00007265    er..    DCD    29285
    $t
    i.sark_cmd_write
    sark_cmd_write
        0x00001790:    b530        0.      PUSH     {r4,r5,lr}
        0x00001792:    23ff        .#      MOVS     r3,#0xff
        0x00001794:    6982        .i      LDR      r2,[r0,#0x18]
        0x00001796:    69c1        .i      LDR      r1,[r0,#0x1c]
        0x00001798:    3301        .3      ADDS     r3,#1
        0x0000179a:    429a        .B      CMP      r2,r3
        0x0000179c:    d801        ..      BHI      0x17a2 ; sark_cmd_write + 18
        0x0000179e:    2902        .)      CMP      r1,#2
        0x000017a0:    d902        ..      BLS      0x17a8 ; sark_cmd_write + 24
        0x000017a2:    2184        .!      MOVS     r1,#0x84
        0x000017a4:    8201        ..      STRH     r1,[r0,#0x10]
        0x000017a6:    e01f        ..      B        0x17e8 ; sark_cmd_write + 88
        0x000017a8:    6943        Ci      LDR      r3,[r0,#0x14]
        0x000017aa:    3020         0      ADDS     r0,r0,#0x20
        0x000017ac:    2900        .)      CMP      r1,#0
        0x000017ae:    d106        ..      BNE      0x17be ; sark_cmd_write + 46
        0x000017b0:    e002        ..      B        0x17b8 ; sark_cmd_write + 40
        0x000017b2:    5c44        D\      LDRB     r4,[r0,r1]
        0x000017b4:    545c        \T      STRB     r4,[r3,r1]
        0x000017b6:    1c49        I.      ADDS     r1,r1,#1
        0x000017b8:    4291        .B      CMP      r1,r2
        0x000017ba:    d3fa        ..      BCC      0x17b2 ; sark_cmd_write + 34
        0x000017bc:    e014        ..      B        0x17e8 ; sark_cmd_write + 88
        0x000017be:    2901        .)      CMP      r1,#1
        0x000017c0:    d109        ..      BNE      0x17d6 ; sark_cmd_write + 70
        0x000017c2:    2100        .!      MOVS     r1,#0
        0x000017c4:    0854        T.      LSRS     r4,r2,#1
        0x000017c6:    e003        ..      B        0x17d0 ; sark_cmd_write + 64
        0x000017c8:    004a        J.      LSLS     r2,r1,#1
        0x000017ca:    5a85        .Z      LDRH     r5,[r0,r2]
        0x000017cc:    1c49        I.      ADDS     r1,r1,#1
        0x000017ce:    529d        .R      STRH     r5,[r3,r2]
        0x000017d0:    428c        .B      CMP      r4,r1
        0x000017d2:    d8f9        ..      BHI      0x17c8 ; sark_cmd_write + 56
        0x000017d4:    e008        ..      B        0x17e8 ; sark_cmd_write + 88
        0x000017d6:    2100        .!      MOVS     r1,#0
        0x000017d8:    0894        ..      LSRS     r4,r2,#2
        0x000017da:    e003        ..      B        0x17e4 ; sark_cmd_write + 84
        0x000017dc:    008a        ..      LSLS     r2,r1,#2
        0x000017de:    5885        .X      LDR      r5,[r0,r2]
        0x000017e0:    1c49        I.      ADDS     r1,r1,#1
        0x000017e2:    509d        .P      STR      r5,[r3,r2]
        0x000017e4:    428c        .B      CMP      r4,r1
        0x000017e6:    d8f9        ..      BHI      0x17dc ; sark_cmd_write + 76
        0x000017e8:    2000        .       MOVS     r0,#0
        0x000017ea:    bd30        0.      POP      {r4,r5,pc}
    i.sark_cpu_state
    sark_cpu_state
        0x000017ec:    4902        .I      LDR      r1,[pc,#8] ; [0x17f8] = 0x402854
        0x000017ee:    69c9        .i      LDR      r1,[r1,#0x1c]
        0x000017f0:    3120         1      ADDS     r1,r1,#0x20
        0x000017f2:    7388        .s      STRB     r0,[r1,#0xe]
        0x000017f4:    4770        pG      BX       lr
    $d
        0x000017f6:    0000        ..      DCW    0
        0x000017f8:    00402854    T(@.    DCD    4204628
    $a
    i.sark_fiq_han
    sark_fiq_han
        0x000017fc:    e92d0003    ..-.    PUSH     {r0,r1}
        0x00001800:    e3a00202    ....    MOV      r0,#0x20000000
        0x00001804:    e5900014    ....    LDR      r0,[r0,#0x14]
        0x00001808:    e59f0010    ....    LDR      r0,[pc,#16] ; [0x1820] = 0x402854
        0x0000180c:    e5901038    8...    LDR      r1,[r0,#0x38]
        0x00001810:    e2811001    ....    ADD      r1,r1,#1
        0x00001814:    e5801038    8...    STR      r1,[r0,#0x38]
        0x00001818:    e8bd0003    ....    POP      {r0,r1}
        0x0000181c:    e25ef004    ..^.    SUBS     pc,lr,#4
    $d
        0x00001820:    00402854    T(@.    DCD    4204628
    $t
    i.sark_heap_init
    sark_heap_init
        0x00001824:    0002        ..      MOVS     r2,r0
        0x00001826:    320c        .2      ADDS     r2,r2,#0xc
        0x00001828:    3908        .9      SUBS     r1,r1,#8
        0x0000182a:    6042        B`      STR      r2,[r0,#4]
        0x0000182c:    60c1        .`      STR      r1,[r0,#0xc]
        0x0000182e:    6002        .`      STR      r2,[r0,#0]
        0x00001830:    2300        .#      MOVS     r3,#0
        0x00001832:    6081        .`      STR      r1,[r0,#8]
        0x00001834:    600b        .`      STR      r3,[r1,#0]
        0x00001836:    6103        .a      STR      r3,[r0,#0x10]
        0x00001838:    604b        K`      STR      r3,[r1,#4]
        0x0000183a:    4770        pG      BX       lr
    i.sark_init
    sark_init
        0x0000183c:    b570        p.      PUSH     {r4-r6,lr}
        0x0000183e:    2540        @%      MOVS     r5,#0x40
        0x00001840:    8829        ).      LDRH     r1,[r5,#0]
        0x00001842:    0004        ..      MOVS     r4,r0
        0x00001844:    0089        ..      LSLS     r1,r1,#2
        0x00001846:    1a40        @.      SUBS     r0,r0,r1
        0x00001848:    886a        j.      LDRH     r2,[r5,#2]
        0x0000184a:    21d2        .!      MOVS     r1,#0xd2
        0x0000184c:    f7ffebfe    ....    BLX      cpu_init_mode ; 0x104c
        0x00001850:    88aa        ..      LDRH     r2,[r5,#4]
        0x00001852:    21d1        .!      MOVS     r1,#0xd1
        0x00001854:    f7ffebfa    ....    BLX      cpu_init_mode ; 0x104c
        0x00001858:    2200        ."      MOVS     r2,#0
        0x0000185a:    21df        .!      MOVS     r1,#0xdf
        0x0000185c:    f7ffebf6    ....    BLX      cpu_init_mode ; 0x104c
        0x00001860:    88e8        ..      LDRH     r0,[r5,#6]
        0x00001862:    0881        ..      LSRS     r1,r0,#2
        0x00001864:    0089        ..      LSLS     r1,r1,#2
        0x00001866:    1a61        a.      SUBS     r1,r4,r1
        0x00001868:    4c2b        +L      LDR      r4,[pc,#172] ; [0x1918] = 0x402854
        0x0000186a:    2000        .       MOVS     r0,#0
        0x0000186c:    6121        !a      STR      r1,[r4,#0x10]
        0x0000186e:    6cc0        .l      LDR      r0,[r0,#0x4c]
        0x00001870:    6160        `a      STR      r0,[r4,#0x14]
        0x00001872:    f7ffffd7    ....    BL       sark_heap_init ; 0x1824
        0x00001876:    61a0        .a      STR      r0,[r4,#0x18]
        0x00001878:    0628        (.      LSLS     r0,r5,#24
        0x0000187a:    6940        @i      LDR      r0,[r0,#0x14]
        0x0000187c:    4927        'I      LDR      r1,[pc,#156] ; [0x191c] = 0xe5007f80
        0x0000187e:    0e00        ..      LSRS     r0,r0,#24
        0x00001880:    6060        ``      STR      r0,[r4,#4]
        0x00001882:    1840        @.      ADDS     r0,r0,r1
        0x00001884:    7d00        .}      LDRB     r0,[r0,#0x14]
        0x00001886:    6020         `      STR      r0,[r4,#0]
        0x00001888:    4824        $H      LDR      r0,[pc,#144] ; [0x191c] = 0xe5007f80
        0x0000188a:    26ff        .&      MOVS     r6,#0xff
        0x0000188c:    3860        `8      SUBS     r0,r0,#0x60
        0x0000188e:    8880        ..      LDRH     r0,[r0,#4]
        0x00001890:    8620         .      STRH     r0,[r4,#0x30]
        0x00001892:    4823        #H      LDR      r0,[pc,#140] ; [0x1920] = 0xdeaddead
        0x00001894:    3625        %6      ADDS     r6,r6,#0x25
        0x00001896:    60a0        .`      STR      r0,[r4,#8]
        0x00001898:    7e28        (~      LDRB     r0,[r5,#0x18]
        0x0000189a:    0031        1.      MOVS     r1,r6
        0x0000189c:    f7ffff06    ....    BL       sark_alloc ; 0x16ac
        0x000018a0:    6220         b      STR      r0,[r4,#0x20]
        0x000018a2:    7e29        )~      LDRB     r1,[r5,#0x18]
        0x000018a4:    0032        2.      MOVS     r2,r6
        0x000018a6:    f7ffff0d    ....    BL       sark_block_init ; 0x16c4
        0x000018aa:    6821        !h      LDR      r1,[r4,#0]
        0x000018ac:    2912        .)      CMP      r1,#0x12
        0x000018ae:    d220         .      BCS      0x18f2 ; sark_init + 182
        0x000018b0:    4a1c        .J      LDR      r2,[pc,#112] ; [0x1924] = 0xe5007000
        0x000018b2:    4b1a        .K      LDR      r3,[pc,#104] ; [0x191c] = 0xe5007f80
        0x000018b4:    01c8        ..      LSLS     r0,r1,#7
        0x000018b6:    1880        ..      ADDS     r0,r0,r2
        0x000018b8:    3b40        @;      SUBS     r3,r3,#0x40
        0x000018ba:    61e0        .a      STR      r0,[r4,#0x1c]
        0x000018bc:    699a        .i      LDR      r2,[r3,#0x18]
        0x000018be:    434a        JC      MULS     r2,r1,r2
        0x000018c0:    0091        ..      LSLS     r1,r2,#2
        0x000018c2:    695a        Zi      LDR      r2,[r3,#0x14]
        0x000018c4:    1889        ..      ADDS     r1,r1,r2
        0x000018c6:    6361        ac      STR      r1,[r4,#0x34]
        0x000018c8:    2270        p"      MOVS     r2,#0x70
        0x000018ca:    2100        .!      MOVS     r1,#0
        0x000018cc:    f7ffec4e    ..N.    BLX      sark_word_set ; 0x116c
        0x000018d0:    69e0        .i      LDR      r0,[r4,#0x1c]
        0x000018d2:    2205        ."      MOVS     r2,#5
        0x000018d4:    0001        ..      MOVS     r1,r0
        0x000018d6:    3120         1      ADDS     r1,r1,#0x20
        0x000018d8:    738a        .s      STRB     r2,[r1,#0xe]
        0x000018da:    6862        bh      LDR      r2,[r4,#4]
        0x000018dc:    734a        Js      STRB     r2,[r1,#0xd]
        0x000018de:    7f2a        *.      LDRB     r2,[r5,#0x1c]
        0x000018e0:    73ca        .s      STRB     r2,[r1,#0xf]
        0x000018e2:    490e        .I      LDR      r1,[pc,#56] ; [0x191c] = 0xe5007f80
        0x000018e4:    3980        .9      SUBS     r1,r1,#0x80
        0x000018e6:    69c9        .i      LDR      r1,[r1,#0x1c]
        0x000018e8:    6441        Ad      STR      r1,[r0,#0x44]
        0x000018ea:    490f        .I      LDR      r1,[pc,#60] ; [0x1928] = 0x2a74
        0x000018ec:    3048        H0      ADDS     r0,r0,#0x48
        0x000018ee:    f7ffebfe    ....    BLX      sark_str_cpy ; 0x10ec
        0x000018f2:    f000f981    ....    BL       sark_vic_init ; 0x1bf8
        0x000018f6:    7e68        h~      LDRB     r0,[r5,#0x19]
        0x000018f8:    4b0c        .K      LDR      r3,[pc,#48] ; [0x192c] = 0x10b8
        0x000018fa:    2201        ."      MOVS     r2,#1
        0x000018fc:    2112        .!      MOVS     r1,#0x12
        0x000018fe:    f000f99b    ....    BL       sark_vic_set ; 0x1c38
        0x00001902:    4b0b        .K      LDR      r3,[pc,#44] ; [0x1930] = 0x17fc
        0x00001904:    2201        ."      MOVS     r2,#1
        0x00001906:    2106        .!      MOVS     r1,#6
        0x00001908:    2010        .       MOVS     r0,#0x10
        0x0000190a:    f000f995    ....    BL       sark_vic_set ; 0x1c38
        0x0000190e:    7ea8        .~      LDRB     r0,[r5,#0x1a]
        0x00001910:    f7fffc4a    ..J.    BL       event_alloc ; 0x11a8
        0x00001914:    201f        .       MOVS     r0,#0x1f
        0x00001916:    bd70        p.      POP      {r4-r6,pc}
    $d
        0x00001918:    00402854    T(@.    DCD    4204628
        0x0000191c:    e5007f80    ....    DCD    3842015104
        0x00001920:    deaddead    ....    DCD    3735936685
        0x00001924:    e5007000    .p..    DCD    3842011136
        0x00001928:    00002a74    t*..    DCD    10868
        0x0000192c:    000010b8    ....    DCD    4280
        0x00001930:    000017fc    ....    DCD    6140
    $t
    i.sark_int
    sark_int
        0x00001934:    b5f8        ..      PUSH     {r3-r7,lr}
        0x00001936:    2101        .!      MOVS     r1,#1
        0x00001938:    4f52        RO      LDR      r7,[pc,#328] ; [0x1a84] = 0x402854
        0x0000193a:    687a        zh      LDR      r2,[r7,#4]
        0x0000193c:    4091        .@      LSLS     r1,r1,r2
        0x0000193e:    4a52        RJ      LDR      r2,[pc,#328] ; [0x1a88] = 0x5ec00000
        0x00001940:    1889        ..      ADDS     r1,r1,r2
        0x00001942:    2271        q"      MOVS     r2,#0x71
        0x00001944:    0652        R.      LSLS     r2,r2,#25
        0x00001946:    60d1        .`      STR      r1,[r2,#0xc]
        0x00001948:    69fb        .i      LDR      r3,[r7,#0x1c]
        0x0000194a:    001c        ..      MOVS     r4,r3
        0x0000194c:    3420         4      ADDS     r4,r4,#0x20
        0x0000194e:    7e21        !~      LDRB     r1,[r4,#0x18]
        0x00001950:    2900        .)      CMP      r1,#0
        0x00001952:    d018        ..      BEQ      0x1986 ; sark_int + 82
        0x00001954:    6b1a        .k      LDR      r2,[r3,#0x30]
        0x00001956:    2902        .)      CMP      r1,#2
        0x00001958:    d100        ..      BNE      0x195c ; sark_int + 40
        0x0000195a:    6318        .c      STR      r0,[r3,#0x30]
        0x0000195c:    2500        .%      MOVS     r5,#0
        0x0000195e:    7625        %v      STRB     r5,[r4,#0x18]
        0x00001960:    261f        .&      MOVS     r6,#0x1f
        0x00001962:    0636        6.      LSLS     r6,r6,#24
        0x00001964:    2903        .)      CMP      r1,#3
        0x00001966:    d120         .      BNE      0x19aa ; sark_int + 118
        0x00001968:    1ed3        ..      SUBS     r3,r2,#3
        0x0000196a:    f7ffec12    ....    BLX      __ARM_common_switch8 ; 0x1190
    $d
        0x0000196e:    110b        ..      DCW    4363
        0x00001970:    09070c0c    ....    DCD    151456780
        0x00001974:    17171c0d    ....    DCD    387390477
        0x00001978:    000c1717    ....    DCD    792343
    $t
        0x0000197c:    2001        .       MOVS     r0,#1
        0x0000197e:    e000        ..      B        0x1982 ; sark_int + 78
        0x00001980:    2000        .       MOVS     r0,#0
        0x00001982:    f7fffc31    ..1.    BL       event_pause ; 0x11e8
        0x00001986:    bdf8        ..      POP      {r3-r7,pc}
        0x00001988:    20ff        .       MOVS     r0,#0xff
        0x0000198a:    f7fffc43    ..C.    BL       event_stop ; 0x1214
        0x0000198e:    bdf8        ..      POP      {r3-r7,pc}
        0x00001990:    2040        @       MOVS     r0,#0x40
        0x00001992:    7f41        A.      LDRB     r1,[r0,#0x1d]
        0x00001994:    0849        I.      LSRS     r1,r1,#1
        0x00001996:    0049        I.      LSLS     r1,r1,#1
        0x00001998:    7741        Aw      STRB     r1,[r0,#0x1d]
        0x0000199a:    bdf8        ..      POP      {r3-r7,pc}
        0x0000199c:    483b        ;H      LDR      r0,[pc,#236] ; [0x1a8c] = 0x402890
        0x0000199e:    62c2        .b      STR      r2,[r0,#0x2c]
        0x000019a0:    2001        .       MOVS     r0,#1
        0x000019a2:    0740        @.      LSLS     r0,r0,#29
        0x000019a4:    e067        g.      B        0x1a76 ; sark_int + 322
        0x000019a6:    2010        .       MOVS     r0,#0x10
        0x000019a8:    e065        e.      B        0x1a76 ; sark_int + 322
        0x000019aa:    2901        .)      CMP      r1,#1
        0x000019ac:    d1f5        ..      BNE      0x199a ; sark_int + 102
        0x000019ae:    9200        ..      STR      r2,[sp,#0]
        0x000019b0:    f000f880    ....    BL       sark_msg_get ; 0x1ab4
        0x000019b4:    0004        ..      MOVS     r4,r0
        0x000019b6:    d060        `.      BEQ      0x1a7a ; sark_int + 326
        0x000019b8:    9900        ..      LDR      r1,[sp,#0]
        0x000019ba:    0020         .      MOVS     r0,r4
        0x000019bc:    f7ffeba4    ....    BLX      sark_msg_cpy ; 0x1108
        0x000019c0:    9800        ..      LDR      r0,[sp,#0]
        0x000019c2:    f000f8ed    ....    BL       sark_shmsg_free ; 0x1ba0
        0x000019c6:    6ab8        .j      LDR      r0,[r7,#0x28]
        0x000019c8:    1c40        @.      ADDS     r0,r0,#1
        0x000019ca:    62b8        .b      STR      r0,[r7,#0x28]
        0x000019cc:    7aa7        .z      LDRB     r7,[r4,#0xa]
        0x000019ce:    0638        8.      LSLS     r0,r7,#24
        0x000019d0:    0f40        @.      LSRS     r0,r0,#29
        0x000019d2:    d131        1.      BNE      0x1a38 ; sark_int + 260
        0x000019d4:    88a0        ..      LDRH     r0,[r4,#4]
        0x000019d6:    2818        .(      CMP      r0,#0x18
        0x000019d8:    d201        ..      BCS      0x19de ; sark_int + 170
        0x000019da:    2081        .       MOVS     r0,#0x81
        0x000019dc:    e01b        ..      B        0x1a16 ; sark_int + 226
        0x000019de:    8a20         .      LDRH     r0,[r4,#0x10]
        0x000019e0:    2180        .!      MOVS     r1,#0x80
        0x000019e2:    2800        .(      CMP      r0,#0
        0x000019e4:    8221        !.      STRH     r1,[r4,#0x10]
        0x000019e6:    d103        ..      BNE      0x19f0 ; sark_int + 188
        0x000019e8:    0020         .      MOVS     r0,r4
        0x000019ea:    f7fffeab    ....    BL       sark_cmd_ver ; 0x1744
        0x000019ee:    e014        ..      B        0x1a1a ; sark_int + 230
        0x000019f0:    2802        .(      CMP      r0,#2
        0x000019f2:    d103        ..      BNE      0x19fc ; sark_int + 200
        0x000019f4:    0020         .      MOVS     r0,r4
        0x000019f6:    f7fffe75    ..u.    BL       sark_cmd_read ; 0x16e4
        0x000019fa:    e00e        ..      B        0x1a1a ; sark_int + 230
        0x000019fc:    2803        .(      CMP      r0,#3
        0x000019fe:    d103        ..      BNE      0x1a08 ; sark_int + 212
        0x00001a00:    0020         .      MOVS     r0,r4
        0x00001a02:    f7fffec5    ....    BL       sark_cmd_write ; 0x1790
        0x00001a06:    e008        ..      B        0x1a1a ; sark_int + 230
        0x00001a08:    2805        .(      CMP      r0,#5
        0x00001a0a:    d103        ..      BNE      0x1a14 ; sark_int + 224
        0x00001a0c:    0020         .      MOVS     r0,r4
        0x00001a0e:    f7fffe62    ..b.    BL       sark_cmd_fill ; 0x16d6
        0x00001a12:    e002        ..      B        0x1a1a ; sark_int + 230
        0x00001a14:    2083        .       MOVS     r0,#0x83
        0x00001a16:    8220         .      STRH     r0,[r4,#0x10]
        0x00001a18:    0028        (.      MOVS     r0,r5
        0x00001a1a:    300c        .0      ADDS     r0,r0,#0xc
        0x00001a1c:    80a0        ..      STRH     r0,[r4,#4]
        0x00001a1e:    7aa0        .z      LDRB     r0,[r4,#0xa]
        0x00001a20:    89a1        ..      LDRH     r1,[r4,#0xc]
        0x00001a22:    7ae2        .z      LDRB     r2,[r4,#0xb]
        0x00001a24:    72a2        .r      STRB     r2,[r4,#0xa]
        0x00001a26:    72e0        .r      STRB     r0,[r4,#0xb]
        0x00001a28:    89e0        ..      LDRH     r0,[r4,#0xe]
        0x00001a2a:    81a0        ..      STRH     r0,[r4,#0xc]
        0x00001a2c:    81e1        ..      STRH     r1,[r4,#0xe]
        0x00001a2e:    210a        .!      MOVS     r1,#0xa
        0x00001a30:    0020         .      MOVS     r0,r4
        0x00001a32:    f000f859    ..Y.    BL       sark_msg_send ; 0x1ae8
        0x00001a36:    e013        ..      B        0x1a60 ; sark_int + 300
        0x00001a38:    2040        @       MOVS     r0,#0x40
        0x00001a3a:    7ec0        .~      LDRB     r0,[r0,#0x1b]
        0x00001a3c:    2800        .(      CMP      r0,#0
        0x00001a3e:    d013        ..      BEQ      0x1a68 ; sark_int + 308
        0x00001a40:    4813        .H      LDR      r0,[pc,#76] ; [0x1a90] = 0x402814
        0x00001a42:    6980        .i      LDR      r0,[r0,#0x18]
        0x00001a44:    2800        .(      CMP      r0,#0
        0x00001a46:    d00b        ..      BEQ      0x1a60 ; sark_int + 300
        0x00001a48:    f7ffeb0c    ....    BLX      cpu_int_disable ; 0x1064
        0x00001a4c:    0005        ..      MOVS     r5,r0
        0x00001a4e:    097a        z.      LSRS     r2,r7,#5
        0x00001a50:    0021        !.      MOVS     r1,r4
        0x00001a52:    2003        .       MOVS     r0,#3
        0x00001a54:    f000f978    ..x.    BL       schedule_sysmode ; 0x1d48
        0x00001a58:    0028        (.      MOVS     r0,r5
        0x00001a5a:    f7ffeb0c    ....    BLX      cpu_int_restore ; 0x1074
        0x00001a5e:    bdf8        ..      POP      {r3-r7,pc}
        0x00001a60:    0020         .      MOVS     r0,r4
        0x00001a62:    f000f817    ....    BL       sark_msg_free ; 0x1a94
        0x00001a66:    bdf8        ..      POP      {r3-r7,pc}
        0x00001a68:    6930        0i      LDR      r0,[r6,#0x10]
        0x00001a6a:    00c0        ..      LSLS     r0,r0,#3
        0x00001a6c:    d5f8        ..      BPL      0x1a60 ; sark_int + 300
        0x00001a6e:    4807        .H      LDR      r0,[pc,#28] ; [0x1a8c] = 0x402890
        0x00001a70:    6284        .b      STR      r4,[r0,#0x28]
        0x00001a72:    2001        .       MOVS     r0,#1
        0x00001a74:    0700        ..      LSLS     r0,r0,#28
        0x00001a76:    61b0        .a      STR      r0,[r6,#0x18]
        0x00001a78:    bdf8        ..      POP      {r3-r7,pc}
        0x00001a7a:    9800        ..      LDR      r0,[sp,#0]
        0x00001a7c:    f000f890    ....    BL       sark_shmsg_free ; 0x1ba0
        0x00001a80:    bdf8        ..      POP      {r3-r7,pc}
    $d
        0x00001a82:    0000        ..      DCW    0
        0x00001a84:    00402854    T(@.    DCD    4204628
        0x00001a88:    5ec00000    ...^    DCD    1589641216
        0x00001a8c:    00402890    .(@.    DCD    4204688
        0x00001a90:    00402814    .(@.    DCD    4204564
    $t
    i.sark_msg_free
    sark_msg_free
        0x00001a94:    b570        p.      PUSH     {r4-r6,lr}
        0x00001a96:    0005        ..      MOVS     r5,r0
        0x00001a98:    4c05        .L      LDR      r4,[pc,#20] ; [0x1ab0] = 0x402854
        0x00001a9a:    f7ffeae4    ....    BLX      cpu_int_disable ; 0x1064
        0x00001a9e:    6a21        !j      LDR      r1,[r4,#0x20]
        0x00001aa0:    6029        )`      STR      r1,[r5,#0]
        0x00001aa2:    6225        %b      STR      r5,[r4,#0x20]
        0x00001aa4:    8ca1        ..      LDRH     r1,[r4,#0x24]
        0x00001aa6:    1e49        I.      SUBS     r1,r1,#1
        0x00001aa8:    84a1        ..      STRH     r1,[r4,#0x24]
        0x00001aaa:    f7ffeae4    ....    BLX      cpu_int_restore ; 0x1074
        0x00001aae:    bd70        p.      POP      {r4-r6,pc}
    $d
        0x00001ab0:    00402854    T(@.    DCD    4204628
    $t
    i.sark_msg_get
    sark_msg_get
        0x00001ab4:    b570        p.      PUSH     {r4-r6,lr}
        0x00001ab6:    4c0b        .L      LDR      r4,[pc,#44] ; [0x1ae4] = 0x402854
        0x00001ab8:    f7ffead4    ....    BLX      cpu_int_disable ; 0x1064
        0x00001abc:    6a25        %j      LDR      r5,[r4,#0x20]
        0x00001abe:    3420         4      ADDS     r4,r4,#0x20
        0x00001ac0:    2d00        .-      CMP      r5,#0
        0x00001ac2:    d00a        ..      BEQ      0x1ada ; sark_msg_get + 38
        0x00001ac4:    6829        )h      LDR      r1,[r5,#0]
        0x00001ac6:    6021        !`      STR      r1,[r4,#0]
        0x00001ac8:    88a1        ..      LDRH     r1,[r4,#4]
        0x00001aca:    1c49        I.      ADDS     r1,r1,#1
        0x00001acc:    0409        ..      LSLS     r1,r1,#16
        0x00001ace:    0c09        ..      LSRS     r1,r1,#16
        0x00001ad0:    80a1        ..      STRH     r1,[r4,#4]
        0x00001ad2:    88e2        ..      LDRH     r2,[r4,#6]
        0x00001ad4:    4291        .B      CMP      r1,r2
        0x00001ad6:    d900        ..      BLS      0x1ada ; sark_msg_get + 38
        0x00001ad8:    80e1        ..      STRH     r1,[r4,#6]
        0x00001ada:    f7ffeacc    ....    BLX      cpu_int_restore ; 0x1074
        0x00001ade:    0028        (.      MOVS     r0,r5
        0x00001ae0:    bd70        p.      POP      {r4-r6,pc}
    $d
        0x00001ae2:    0000        ..      DCW    0
        0x00001ae4:    00402854    T(@.    DCD    4204628
    $t
    i.sark_msg_send
    sark_msg_send
        0x00001ae8:    b5f8        ..      PUSH     {r3-r7,lr}
        0x00001aea:    000d        ..      MOVS     r5,r1
        0x00001aec:    0006        ..      MOVS     r6,r0
        0x00001aee:    f000f869    ..i.    BL       sark_shmsg_get ; 0x1bc4
        0x00001af2:    0004        ..      MOVS     r4,r0
        0x00001af4:    d101        ..      BNE      0x1afa ; sark_msg_send + 18
        0x00001af6:    2000        .       MOVS     r0,#0
        0x00001af8:    bdf8        ..      POP      {r3-r7,pc}
        0x00001afa:    0031        1.      MOVS     r1,r6
        0x00001afc:    0020         .      MOVS     r0,r4
        0x00001afe:    f7ffeb04    ....    BLX      sark_msg_cpy ; 0x1108
        0x00001b02:    4e1c        .N      LDR      r6,[pc,#112] ; [0x1b74] = 0x402854
        0x00001b04:    2701        .'      MOVS     r7,#1
        0x00001b06:    69f0        .i      LDR      r0,[r6,#0x1c]
        0x00001b08:    6344        Dc      STR      r4,[r0,#0x34]
        0x00001b0a:    3020         0      ADDS     r0,r0,#0x20
        0x00001b0c:    7647        Gv      STRB     r7,[r0,#0x19]
        0x00001b0e:    0038        8.      MOVS     r0,r7
        0x00001b10:    f7ffeab4    ....    BLX      sark_lock_get ; 0x107c
        0x00001b14:    6832        2h      LDR      r2,[r6,#0]
        0x00001b16:    4918        .I      LDR      r1,[pc,#96] ; [0x1b78] = 0xe5007fc0
        0x00001b18:    003b        ;.      MOVS     r3,r7
        0x00001b1a:    4093        .@      LSLS     r3,r3,r2
        0x00001b1c:    6ac9        .j      LDR      r1,[r1,#0x2c]
        0x00001b1e:    4a16        .J      LDR      r2,[pc,#88] ; [0x1b78] = 0xe5007fc0
        0x00001b20:    430b        .C      ORRS     r3,r3,r1
        0x00001b22:    2900        .)      CMP      r1,#0
        0x00001b24:    62d3        .b      STR      r3,[r2,#0x2c]
        0x00001b26:    d108        ..      BNE      0x1b3a ; sark_msg_send + 82
        0x00001b28:    4913        .I      LDR      r1,[pc,#76] ; [0x1b78] = 0xe5007fc0
        0x00001b2a:    2271        q"      MOVS     r2,#0x71
        0x00001b2c:    3920         9      SUBS     r1,r1,#0x20
        0x00001b2e:    7a09        .z      LDRB     r1,[r1,#8]
        0x00001b30:    408f        .@      LSLS     r7,r7,r1
        0x00001b32:    4912        .I      LDR      r1,[pc,#72] ; [0x1b7c] = 0x5ec00000
        0x00001b34:    1879        y.      ADDS     r1,r7,r1
        0x00001b36:    0652        R.      LSLS     r2,r2,#25
        0x00001b38:    6091        .`      STR      r1,[r2,#8]
        0x00001b3a:    2101        .!      MOVS     r1,#1
        0x00001b3c:    f7ffeab0    ....    BLX      sark_lock_free ; 0x10a0
        0x00001b40:    490d        .I      LDR      r1,[pc,#52] ; [0x1b78] = 0xe5007fc0
        0x00001b42:    39b0        .9      SUBS     r1,r1,#0xb0
        0x00001b44:    680a        .h      LDR      r2,[r1,#0]
        0x00001b46:    69f0        .i      LDR      r0,[r6,#0x1c]
        0x00001b48:    3020         0      ADDS     r0,r0,#0x20
        0x00001b4a:    e003        ..      B        0x1b54 ; sark_msg_send + 108
        0x00001b4c:    680b        .h      LDR      r3,[r1,#0]
        0x00001b4e:    1a9b        ..      SUBS     r3,r3,r2
        0x00001b50:    42ab        .B      CMP      r3,r5
        0x00001b52:    d802        ..      BHI      0x1b5a ; sark_msg_send + 114
        0x00001b54:    7e43        C~      LDRB     r3,[r0,#0x19]
        0x00001b56:    2b00        .+      CMP      r3,#0
        0x00001b58:    d1f8        ..      BNE      0x1b4c ; sark_msg_send + 100
        0x00001b5a:    7e40        @~      LDRB     r0,[r0,#0x19]
        0x00001b5c:    2800        .(      CMP      r0,#0
        0x00001b5e:    d003        ..      BEQ      0x1b68 ; sark_msg_send + 128
        0x00001b60:    0020         .      MOVS     r0,r4
        0x00001b62:    f000f81d    ....    BL       sark_shmsg_free ; 0x1ba0
        0x00001b66:    e7c6        ..      B        0x1af6 ; sark_msg_send + 14
        0x00001b68:    6af0        .j      LDR      r0,[r6,#0x2c]
        0x00001b6a:    1c40        @.      ADDS     r0,r0,#1
        0x00001b6c:    62f0        .b      STR      r0,[r6,#0x2c]
        0x00001b6e:    2001        .       MOVS     r0,#1
        0x00001b70:    bdf8        ..      POP      {r3-r7,pc}
    $d
        0x00001b72:    0000        ..      DCW    0
        0x00001b74:    00402854    T(@.    DCD    4204628
        0x00001b78:    e5007fc0    ....    DCD    3842015168
        0x00001b7c:    5ec00000    ...^    DCD    1589641216
    $t
    i.sark_post_main
    sark_post_main
        0x00001b80:    4802        .H      LDR      r0,[pc,#8] ; [0x1b8c] = 0x402854
        0x00001b82:    210b        .!      MOVS     r1,#0xb
        0x00001b84:    69c0        .i      LDR      r0,[r0,#0x1c]
        0x00001b86:    3020         0      ADDS     r0,r0,#0x20
        0x00001b88:    7381        .s      STRB     r1,[r0,#0xe]
        0x00001b8a:    4770        pG      BX       lr
    $d
        0x00001b8c:    00402854    T(@.    DCD    4204628
    $t
    i.sark_pre_main
    sark_pre_main
        0x00001b90:    4802        .H      LDR      r0,[pc,#8] ; [0x1b9c] = 0x402854
        0x00001b92:    2106        .!      MOVS     r1,#6
        0x00001b94:    69c0        .i      LDR      r0,[r0,#0x1c]
        0x00001b96:    3020         0      ADDS     r0,r0,#0x20
        0x00001b98:    7381        .s      STRB     r1,[r0,#0xe]
        0x00001b9a:    4770        pG      BX       lr
    $d
        0x00001b9c:    00402854    T(@.    DCD    4204628
    $t
    i.sark_shmsg_free
    sark_shmsg_free
        0x00001ba0:    b510        ..      PUSH     {r4,lr}
        0x00001ba2:    0004        ..      MOVS     r4,r0
        0x00001ba4:    2000        .       MOVS     r0,#0
        0x00001ba6:    f7ffea6a    ..j.    BLX      sark_lock_get ; 0x107c
        0x00001baa:    4905        .I      LDR      r1,[pc,#20] ; [0x1bc0] = 0xe5007f68
        0x00001bac:    680a        .h      LDR      r2,[r1,#0]
        0x00001bae:    6022        "`      STR      r2,[r4,#0]
        0x00001bb0:    600c        .`      STR      r4,[r1,#0]
        0x00001bb2:    888a        ..      LDRH     r2,[r1,#4]
        0x00001bb4:    1e52        R.      SUBS     r2,r2,#1
        0x00001bb6:    808a        ..      STRH     r2,[r1,#4]
        0x00001bb8:    2100        .!      MOVS     r1,#0
        0x00001bba:    f7ffea72    ..r.    BLX      sark_lock_free ; 0x10a0
        0x00001bbe:    bd10        ..      POP      {r4,pc}
    $d
        0x00001bc0:    e5007f68    h...    DCD    3842015080
    $t
    i.sark_shmsg_get
    sark_shmsg_get
        0x00001bc4:    2000        .       MOVS     r0,#0
        0x00001bc6:    b510        ..      PUSH     {r4,lr}
        0x00001bc8:    f7ffea58    ..X.    BLX      sark_lock_get ; 0x107c
        0x00001bcc:    4909        .I      LDR      r1,[pc,#36] ; [0x1bf4] = 0xe5007f68
        0x00001bce:    680c        .h      LDR      r4,[r1,#0]
        0x00001bd0:    2c00        .,      CMP      r4,#0
        0x00001bd2:    d00a        ..      BEQ      0x1bea ; sark_shmsg_get + 38
        0x00001bd4:    6822        "h      LDR      r2,[r4,#0]
        0x00001bd6:    600a        .`      STR      r2,[r1,#0]
        0x00001bd8:    888a        ..      LDRH     r2,[r1,#4]
        0x00001bda:    1c52        R.      ADDS     r2,r2,#1
        0x00001bdc:    0412        ..      LSLS     r2,r2,#16
        0x00001bde:    0c12        ..      LSRS     r2,r2,#16
        0x00001be0:    808a        ..      STRH     r2,[r1,#4]
        0x00001be2:    88cb        ..      LDRH     r3,[r1,#6]
        0x00001be4:    429a        .B      CMP      r2,r3
        0x00001be6:    d900        ..      BLS      0x1bea ; sark_shmsg_get + 38
        0x00001be8:    80ca        ..      STRH     r2,[r1,#6]
        0x00001bea:    2100        .!      MOVS     r1,#0
        0x00001bec:    f7ffea58    ..X.    BLX      sark_lock_free ; 0x10a0
        0x00001bf0:    0020         .      MOVS     r0,r4
        0x00001bf2:    bd10        ..      POP      {r4,pc}
    $d
        0x00001bf4:    e5007f68    h...    DCD    3842015080
    $t
    i.sark_vic_init
    sark_vic_init
        0x00001bf8:    2000        .       MOVS     r0,#0
        0x00001bfa:    b5f0        ..      PUSH     {r4-r7,lr}
        0x00001bfc:    43c0        .C      MVNS     r0,r0
        0x00001bfe:    241f        .$      MOVS     r4,#0x1f
        0x00001c00:    0624        $.      LSLS     r4,r4,#24
        0x00001c02:    6160        `a      STR      r0,[r4,#0x14]
        0x00001c04:    2200        ."      MOVS     r2,#0
        0x00001c06:    60e2        .`      STR      r2,[r4,#0xc]
        0x00001c08:    6322        "c      STR      r2,[r4,#0x30]
        0x00001c0a:    4b07        .K      LDR      r3,[pc,#28] ; [0x1c28] = 0x1f000200
        0x00001c0c:    4d07        .M      LDR      r5,[pc,#28] ; [0x1c2c] = 0x108
        0x00001c0e:    4f08        .O      LDR      r7,[pc,#32] ; [0x1c30] = 0x1f000100
        0x00001c10:    0010        ..      MOVS     r0,r2
        0x00001c12:    0081        ..      LSLS     r1,r0,#2
        0x00001c14:    18ce        ..      ADDS     r6,r1,r3
        0x00001c16:    6032        2`      STR      r2,[r6,#0]
        0x00001c18:    19c9        ..      ADDS     r1,r1,r7
        0x00001c1a:    600d        .`      STR      r5,[r1,#0]
        0x00001c1c:    1c40        @.      ADDS     r0,r0,#1
        0x00001c1e:    2810        .(      CMP      r0,#0x10
        0x00001c20:    d3f7        ..      BCC      0x1c12 ; sark_vic_init + 26
        0x00001c22:    4804        .H      LDR      r0,[pc,#16] ; [0x1c34] = 0x10e8
        0x00001c24:    6360        `c      STR      r0,[r4,#0x34]
        0x00001c26:    bdf0        ..      POP      {r4-r7,pc}
    $d
        0x00001c28:    1f000200    ....    DCD    520094208
        0x00001c2c:    00000108    ....    DCD    264
        0x00001c30:    1f000100    ....    DCD    520093952
        0x00001c34:    000010e8    ....    DCD    4328
    $t
    i.sark_vic_set
    sark_vic_set
        0x00001c38:    b570        p.      PUSH     {r4-r6,lr}
        0x00001c3a:    2401        .$      MOVS     r4,#1
        0x00001c3c:    408c        .@      LSLS     r4,r4,r1
        0x00001c3e:    251f        .%      MOVS     r5,#0x1f
        0x00001c40:    062d        -.      LSLS     r5,r5,#24
        0x00001c42:    2810        .(      CMP      r0,#0x10
        0x00001c44:    d103        ..      BNE      0x1c4e ; sark_vic_set + 22
        0x00001c46:    2000        .       MOVS     r0,#0
        0x00001c48:    63c3        .c      STR      r3,[r0,#0x3c]
        0x00001c4a:    60ec        .`      STR      r4,[r5,#0xc]
        0x00001c4c:    e008        ..      B        0x1c60 ; sark_vic_set + 40
        0x00001c4e:    4e06        .N      LDR      r6,[pc,#24] ; [0x1c68] = 0x1f000100
        0x00001c50:    0080        ..      LSLS     r0,r0,#2
        0x00001c52:    1986        ..      ADDS     r6,r0,r6
        0x00001c54:    6033        3`      STR      r3,[r6,#0]
        0x00001c56:    2320         #      MOVS     r3,#0x20
        0x00001c58:    4319        .C      ORRS     r1,r1,r3
        0x00001c5a:    4b04        .K      LDR      r3,[pc,#16] ; [0x1c6c] = 0x1f000200
        0x00001c5c:    18c0        ..      ADDS     r0,r0,r3
        0x00001c5e:    6001        .`      STR      r1,[r0,#0]
        0x00001c60:    2a00        .*      CMP      r2,#0
        0x00001c62:    d000        ..      BEQ      0x1c66 ; sark_vic_set + 46
        0x00001c64:    612c        ,a      STR      r4,[r5,#0x10]
        0x00001c66:    bd70        p.      POP      {r4-r6,pc}
    $d
        0x00001c68:    1f000100    ....    DCD    520093952
        0x00001c6c:    1f000200    ....    DCD    520094208
    $t
    i.sark_wait
    sark_wait
        0x00001c70:    b510        ..      PUSH     {r4,lr}
        0x00001c72:    2440        @$      MOVS     r4,#0x40
        0x00001c74:    e001        ..      B        0x1c7a ; sark_wait + 10
        0x00001c76:    f7ffea44    ..D.    BLX      cpu_wfi ; 0x1100
        0x00001c7a:    7f60        `.      LDRB     r0,[r4,#0x1d]
        0x00001c7c:    07c0        ..      LSLS     r0,r0,#31
        0x00001c7e:    d1fa        ..      BNE      0x1c76 ; sark_wait + 6
        0x00001c80:    bd10        ..      POP      {r4,pc}
        0x00001c82:    0000        ..      MOVS     r0,r0
    i.sark_xalloc
    sark_xalloc
        0x00001c84:    b5ff        ..      PUSH     {r0-r7,lr}
        0x00001c86:    b081        ..      SUB      sp,sp,#4
        0x00001c88:    0016        ..      MOVS     r6,r2
        0x00001c8a:    001d        ..      MOVS     r5,r3
        0x00001c8c:    2900        .)      CMP      r1,#0
        0x00001c8e:    d030        0.      BEQ      0x1cf2 ; sark_xalloc + 110
        0x00001c90:    2eff        ..      CMP      r6,#0xff
        0x00001c92:    d82e        ..      BHI      0x1cf2 ; sark_xalloc + 110
        0x00001c94:    0a28        (.      LSRS     r0,r5,#8
        0x00001c96:    07aa        ..      LSLS     r2,r5,#30
        0x00001c98:    d401        ..      BMI      0x1c9e ; sark_xalloc + 26
        0x00001c9a:    2040        @       MOVS     r0,#0x40
        0x00001c9c:    7f00        ..      LDRB     r0,[r0,#0x1c]
        0x00001c9e:    0200        ..      LSLS     r0,r0,#8
        0x00001ca0:    1987        ..      ADDS     r7,r0,r6
        0x00001ca2:    2e00        ..      CMP      r6,#0
        0x00001ca4:    d005        ..      BEQ      0x1cb2 ; sark_xalloc + 46
        0x00001ca6:    4827        'H      LDR      r0,[pc,#156] ; [0x1d44] = 0xe5007fc0
        0x00001ca8:    00ba        ..      LSLS     r2,r7,#2
        0x00001caa:    69c0        .i      LDR      r0,[r0,#0x1c]
        0x00001cac:    5880        .X      LDR      r0,[r0,r2]
        0x00001cae:    2800        .(      CMP      r0,#0
        0x00001cb0:    d11f        ..      BNE      0x1cf2 ; sark_xalloc + 110
        0x00001cb2:    1cc9        ..      ADDS     r1,r1,#3
        0x00001cb4:    0888        ..      LSRS     r0,r1,#2
        0x00001cb6:    0080        ..      LSLS     r0,r0,#2
        0x00001cb8:    3008        .0      ADDS     r0,r0,#8
        0x00001cba:    9002        ..      STR      r0,[sp,#8]
        0x00001cbc:    07e8        ..      LSLS     r0,r5,#31
        0x00001cbe:    d003        ..      BEQ      0x1cc8 ; sark_xalloc + 68
        0x00001cc0:    2006        .       MOVS     r0,#6
        0x00001cc2:    f7ffe9dc    ....    BLX      sark_lock_get ; 0x107c
        0x00001cc6:    4684        .F      MOV      r12,r0
        0x00001cc8:    9801        ..      LDR      r0,[sp,#4]
        0x00001cca:    2200        ."      MOVS     r2,#0
        0x00001ccc:    6804        .h      LDR      r4,[r0,#0]
        0x00001cce:    e008        ..      B        0x1ce2 ; sark_xalloc + 94
        0x00001cd0:    9802        ..      LDR      r0,[sp,#8]
        0x00001cd2:    6821        !h      LDR      r1,[r4,#0]
        0x00001cd4:    1820         .      ADDS     r0,r4,r0
        0x00001cd6:    42a0        .B      CMP      r0,r4
        0x00001cd8:    d905        ..      BLS      0x1ce6 ; sark_xalloc + 98
        0x00001cda:    4288        .B      CMP      r0,r1
        0x00001cdc:    d90c        ..      BLS      0x1cf8 ; sark_xalloc + 116
        0x00001cde:    0022        ".      MOVS     r2,r4
        0x00001ce0:    6864        dh      LDR      r4,[r4,#4]
        0x00001ce2:    2c00        .,      CMP      r4,#0
        0x00001ce4:    d1f4        ..      BNE      0x1cd0 ; sark_xalloc + 76
        0x00001ce6:    07e8        ..      LSLS     r0,r5,#31
        0x00001ce8:    d003        ..      BEQ      0x1cf2 ; sark_xalloc + 110
        0x00001cea:    2106        .!      MOVS     r1,#6
        0x00001cec:    4660        `F      MOV      r0,r12
        0x00001cee:    f7ffe9d8    ....    BLX      sark_lock_free ; 0x10a0
        0x00001cf2:    2000        .       MOVS     r0,#0
        0x00001cf4:    b005        ..      ADD      sp,sp,#0x14
        0x00001cf6:    bdf0        ..      POP      {r4-r7,pc}
        0x00001cf8:    0003        ..      MOVS     r3,r0
        0x00001cfa:    3308        .3      ADDS     r3,r3,#8
        0x00001cfc:    428b        .B      CMP      r3,r1
        0x00001cfe:    d204        ..      BCS      0x1d0a ; sark_xalloc + 134
        0x00001d00:    6001        .`      STR      r1,[r0,#0]
        0x00001d02:    6020         `      STR      r0,[r4,#0]
        0x00001d04:    6861        ah      LDR      r1,[r4,#4]
        0x00001d06:    6041        A`      STR      r1,[r0,#4]
        0x00001d08:    6060        ``      STR      r0,[r4,#4]
        0x00001d0a:    2a00        .*      CMP      r2,#0
        0x00001d0c:    d002        ..      BEQ      0x1d14 ; sark_xalloc + 144
        0x00001d0e:    6860        `h      LDR      r0,[r4,#4]
        0x00001d10:    6050        P`      STR      r0,[r2,#4]
        0x00001d12:    e002        ..      B        0x1d1a ; sark_xalloc + 150
        0x00001d14:    9801        ..      LDR      r0,[sp,#4]
        0x00001d16:    6861        ah      LDR      r1,[r4,#4]
        0x00001d18:    6001        .`      STR      r1,[r0,#0]
        0x00001d1a:    07e8        ..      LSLS     r0,r5,#31
        0x00001d1c:    d003        ..      BEQ      0x1d26 ; sark_xalloc + 162
        0x00001d1e:    2106        .!      MOVS     r1,#6
        0x00001d20:    4660        `F      MOV      r0,r12
        0x00001d22:    f7ffe9be    ....    BLX      sark_lock_free ; 0x10a0
        0x00001d26:    2001        .       MOVS     r0,#1
        0x00001d28:    0400        ..      LSLS     r0,r0,#16
        0x00001d2a:    1a38        8.      SUBS     r0,r7,r0
        0x00001d2c:    2e00        ..      CMP      r6,#0
        0x00001d2e:    6060        ``      STR      r0,[r4,#4]
        0x00001d30:    d005        ..      BEQ      0x1d3e ; sark_xalloc + 186
        0x00001d32:    4904        .I      LDR      r1,[pc,#16] ; [0x1d44] = 0xe5007fc0
        0x00001d34:    0020         .      MOVS     r0,r4
        0x00001d36:    69c9        .i      LDR      r1,[r1,#0x1c]
        0x00001d38:    3008        .0      ADDS     r0,r0,#8
        0x00001d3a:    00ba        ..      LSLS     r2,r7,#2
        0x00001d3c:    5088        .P      STR      r0,[r1,r2]
        0x00001d3e:    0020         .      MOVS     r0,r4
        0x00001d40:    3008        .0      ADDS     r0,r0,#8
        0x00001d42:    e7d7        ..      B        0x1cf4 ; sark_xalloc + 112
    $d
        0x00001d44:    e5007fc0    ....    DCD    3842015168
    $t
    i.schedule_sysmode
    schedule_sysmode
        0x00001d48:    4770        pG      BX       lr
        0x00001d4a:    0000        ..      MOVS     r0,r0
    $a
    x$fpl$d2f
    __aeabi_d2f
    _d2f
        0x00001d4c:    e2013102    .1..    AND      r3,r1,#0x80000000
        0x00001d50:    e3c11102    ....    BIC      r1,r1,#0x80000000
        0x00001d54:    e0212081    . !.    EOR      r2,r1,r1,LSL #1
        0x00001d58:    e312047f    ....    TST      r2,#0x7f000000
        0x00001d5c:    0312060e    ....    TSTEQ    r2,#0xe00000
        0x00001d60:    0a000018    ....    BEQ      0x1dc8 ; __aeabi_d2f + 124
        0x00001d64:    e241130e    ..A.    SUB      r1,r1,#0x38000000
        0x00001d68:    e3510601    ..Q.    CMP      r1,#0x100000
        0x00001d6c:    ba000010    ....    BLT      0x1db4 ; __aeabi_d2f + 104
        0x00001d70:    e1b02200    ."..    LSLS     r2,r0,#4
        0x00001d74:    e3a0c103    ....    MOV      r12,#0xc0000000
        0x00001d78:    8a000005    ....    BHI      0x1d94 ; __aeabi_d2f + 72
        0x00001d7c:    2a000001    ...*    BCS      0x1d88 ; __aeabi_d2f + 60
        0x00001d80:    03a0c000    ....    MOVEQ    r12,#0
        0x00001d84:    ea000005    ....    B        0x1da0 ; __aeabi_d2f + 84
        0x00001d88:    e2002202    ."..    AND      r2,r0,#0x20000000
        0x00001d8c:    e09cc102    ....    ADDS     r12,r12,r2,LSL #2
        0x00001d90:    4a000002    ...J    BMI      0x1da0 ; __aeabi_d2f + 84
        0x00001d94:    e2900202    ....    ADDS     r0,r0,#0x20000000
        0x00001d98:    e3a0c101    ....    MOV      r12,#0x40000000
        0x00001d9c:    e2a11000    ....    ADC      r1,r1,#0
        0x00001da0:    e35106ff    ..Q.    CMP      r1,#0xff00000
        0x00001da4:    aa000004    ....    BGE      0x1dbc ; __aeabi_d2f + 112
        0x00001da8:    e1833181    .1..    ORR      r3,r3,r1,LSL #3
        0x00001dac:    e1830ea0    ....    ORR      r0,r3,r0,LSR #29
        0x00001db0:    e12fff1e    ../.    BX       lr
        0x00001db4:    e1a00003    ....    MOV      r0,r3
        0x00001db8:    e12fff1e    ../.    BX       lr
        0x00001dbc:    e3a020ff    . ..    MOV      r2,#0xff
        0x00001dc0:    e1830b82    ....    ORR      r0,r3,r2,LSL #23
        0x00001dc4:    e12fff1e    ../.    BX       lr
        0x00001dc8:    e3110601    ....    TST      r1,#0x100000
        0x00001dcc:    1a000001    ....    BNE      0x1dd8 ; __aeabi_d2f + 140
        0x00001dd0:    e1a00003    ....    MOV      r0,r3
        0x00001dd4:    e12fff1e    ../.    BX       lr
        0x00001dd8:    e59fc014    ....    LDR      r12,[pc,#20] ; [0x1df4] = 0x4000088
        0x00001ddc:    e1811003    ....    ORR      r1,r1,r3
        0x00001de0:    e1902601    .&..    ORRS     r2,r0,r1,LSL #12
        0x00001de4:    1a000007    ....    BNE      __fpl_dcheck_NaN1 ; 0x1e08
        0x00001de8:    e1a00000    ....    MOV      r0,r0
    __fpl_inf_d2f
        0x00001dec:    e3c10607    ....    BIC      r0,r1,#0x700000
        0x00001df0:    e12fff1e    ../.    BX       lr
    $d
        0x00001df4:    04000088    ....    DCD    67109000
    $a
    x$fpl$dcheck
    __fpl_dcheck_NaN2
        0x00001df8:    e59f1004    ....    LDR      r1,[pc,#4] ; [0x1e04] = 0x7ff80000
        0x00001dfc:    e3a00000    ....    MOV      r0,#0
        0x00001e00:    ea0002ee    ....    B        __fpl_return_NaN ; 0x29c0
    $d
        0x00001e04:    7ff80000    ....    DCD    2146959360
    $a
    x$fpl$dcheck1
    __fpl_dcheck_NaN1
        0x00001e08:    e59f1004    ....    LDR      r1,[pc,#4] ; [0x1e14] = 0x7ff80000
        0x00001e0c:    e3a00000    ....    MOV      r0,#0
        0x00001e10:    ea0002ea    ....    B        __fpl_return_NaN ; 0x29c0
    $d
        0x00001e14:    7ff80000    ....    DCD    2146959360
    $a
    x$fpl$ddiv
    __aeabi_ddiv
    _ddiv
        0x00001e18:    e92d4070    p@-.    PUSH     {r4-r6,lr}
    ddiv_entry
        0x00001e1c:    e59fc428    (...    LDR      r12,[pc,#1064] ; [0x224c] = 0x7ff0000
        0x00001e20:    e1dc4221    !B..    BICS     r4,r12,r1,LSR #4
        0x00001e24:    11dc4223    #B..    BICSNE   r4,r12,r3,LSR #4
        0x00001e28:    0a00004f    O...    BEQ      0x1f6c ; ddiv_entry + 336
        0x00001e2c:    e0215003    .P!.    EOR      r5,r1,r3
        0x00001e30:    e00c4221    !B..    AND      r4,r12,r1,LSR #4
        0x00001e34:    e1844fa5    .O..    ORR      r4,r4,r5,LSR #31
        0x00001e38:    e01c5223    #R..    ANDS     r5,r12,r3,LSR #4
        0x00001e3c:    1111020c    ....    TSTNE    r1,r12,LSL #4
        0x00001e40:    0a00003a    :...    BEQ      0x1f30 ; ddiv_entry + 276
        0x00001e44:    e1a01581    ....    LSL      r1,r1,#11
        0x00001e48:    e1a03583    .5..    LSL      r3,r3,#11
        0x00001e4c:    e1811aa0    ....    ORR      r1,r1,r0,LSR #21
        0x00001e50:    e1833aa2    .:..    ORR      r3,r3,r2,LSR #21
        0x00001e54:    e0444005    .@D.    SUB      r4,r4,r5
        0x00001e58:    e28447ff    .G..    ADD      r4,r4,#0x3fc0000
        0x00001e5c:    e3811102    ....    ORR      r1,r1,#0x80000000
        0x00001e60:    e3833102    .1..    ORR      r3,r3,#0x80000000
        0x00001e64:    e1a00580    ....    LSL      r0,r0,#11
        0x00001e68:    e1a02582    .%..    LSL      r2,r2,#11
        0x00001e6c:    eb000059    Y...    BL       _ddiv_mantissas ; 0x1fd8
        0x00001e70:    e1b06a80    .j..    LSLS     r6,r0,#21
        0x00001e74:    e1a005a0    ....    LSR      r0,r0,#11
        0x00001e78:    e0833844    D8..    ADD      r3,r3,r4,ASR #16
        0x00001e7c:    e1800a81    ....    ORR      r0,r0,r1,LSL #21
        0x00001e80:    e1a015a1    ....    LSR      r1,r1,#11
        0x00001e84:    e0812a03    .*..    ADD      r2,r1,r3,LSL #20
        0x00001e88:    e0221f84    ..".    EOR      r1,r2,r4,LSL #31
        0x00001e8c:    0a00000a    ....    BEQ      0x1ebc ; ddiv_entry + 160
        0x00001e90:    e1b0e086    ....    LSLS     lr,r6,#1
        0x00001e94:    33a06103    .a.3    MOVCC    r6,#0xc0000000
        0x00001e98:    3a000007    ...:    BCC      0x1ebc ; ddiv_entry + 160
        0x00001e9c:    13a03000    .0..    MOVNE    r3,#0
        0x00001ea0:    03a03102    .1..    MOVEQ    r3,#0x80000000
        0x00001ea4:    e2b00000    ....    ADCS     r0,r0,#0
        0x00001ea8:    e2a11000    ....    ADC      r1,r1,#0
        0x00001eac:    e1100fa3    ....    TST      r0,r3,LSR #31
        0x00001eb0:    e3a06101    .a..    MOV      r6,#0x40000000
        0x00001eb4:    e1c00fa3    ....    BIC      r0,r0,r3,LSR #31
        0x00001eb8:    13a06103    .a..    MOVNE    r6,#0xc0000000
        0x00001ebc:    e59fe38c    ....    LDR      lr,[pc,#908] ; [0x2250] = 0x7ff00000
        0x00001ec0:    e1310f84    ..1.    TEQ      r1,r4,LSL #31
        0x00001ec4:    4a00000b    ...J    BMI      0x1ef8 ; ddiv_entry + 220
        0x00001ec8:    e112000e    ....    TST      r2,lr
        0x00001ecc:    11dee001    ....    BICSNE   lr,lr,r1
        0x00001ed0:    0a000008    ....    BEQ      0x1ef8 ; ddiv_entry + 220
        0x00001ed4:    e8bd8070    p...    POP      {r4-r6,pc}
        0x00001ed8:    e1b05f84    ._..    LSLS     r5,r4,#31
        0x00001edc:    531e0502    ...S    TSTPL    lr,#0x800000
        0x00001ee0:    431e0501    ...C    TSTMI    lr,#0x400000
        0x00001ee4:    03a06101    .a..    MOVEQ    r6,#0x40000000
        0x00001ee8:    13a06103    .a..    MOVNE    r6,#0xc0000000
        0x00001eec:    02900001    ....    ADDSEQ   r0,r0,#1
        0x00001ef0:    e2a11000    ....    ADC      r1,r1,#0
        0x00001ef4:    eafffff0    ....    B        0x1ebc ; ddiv_entry + 160
        0x00001ef8:    e3540301    ..T.    CMP      r4,#0x4000000
        0x00001efc:    d2811206    ....    ADDLE    r1,r1,#0x60000000
        0x00001f00:    d3a00000    ....    MOVLE    r0,#0
        0x00001f04:    d2011102    ....    ANDLE    r1,r1,#0x80000000
        0x00001f08:    d8bd8070    p...    POPLE    {r4-r6,pc}
        0x00001f0c:    e3e00000    ....    MVN      r0,#0
        0x00001f10:    a2411206    ..A.    SUBGE    r1,r1,#0x60000000
        0x00001f14:    e18110a0    ....    ORR      r1,r1,r0,LSR #1
        0x00001f18:    e386c014    ....    ORR      r12,r6,#0x14
        0x00001f1c:    e8bd4070    p@..    POP      {r4-r6,lr}
        0x00001f20:    a38cc201    ....    ORRGE    r12,r12,#0x10000000
        0x00001f24:    e0211620     .!.    EOR      r1,r1,r0,LSR #12
        0x00001f28:    e3a00000    ....    MOV      r0,#0
        0x00001f2c:    e12fff1e    ../.    BX       lr
        0x00001f30:    e111020c    ....    TST      r1,r12,LSL #4
        0x00001f34:    0a000000    ....    BEQ      0x1f3c ; ddiv_entry + 288
        0x00001f38:    ea000005    ....    B        0x1f54 ; ddiv_entry + 312
        0x00001f3c:    e113020c    ....    TST      r3,r12,LSL #4
        0x00001f40:    0a000020     ...    BEQ      0x1fc8 ; __fpl_inf_ddiv + 52
        0x00001f44:    e3a00000    ....    MOV      r0,#0
        0x00001f48:    e0211003    ..!.    EOR      r1,r1,r3
        0x00001f4c:    e2011102    ....    AND      r1,r1,#0x80000000
        0x00001f50:    e8bd8070    p...    POP      {r4-r6,pc}
        0x00001f54:    e3e00000    ....    MVN      r0,#0
        0x00001f58:    e0211003    ..!.    EOR      r1,r1,r3
        0x00001f5c:    e18110a0    ....    ORR      r1,r1,r0,LSR #1
        0x00001f60:    e0211620     .!.    EOR      r1,r1,r0,LSR #12
        0x00001f64:    e3a00000    ....    MOV      r0,#0
        0x00001f68:    e8bd8070    p...    POP      {r4-r6,pc}
        0x00001f6c:    e1a0e081    ....    LSL      lr,r1,#1
        0x00001f70:    e15e028c    ..^.    CMP      lr,r12,LSL #5
        0x00001f74:    03500000    ..P.    CMPEQ    r0,#0
        0x00001f78:    e1a05083    .P..    LSL      r5,r3,#1
        0x00001f7c:    9155028c    ..U.    CMPLS    r5,r12,LSL #5
        0x00001f80:    e8bd4070    p@..    POP      {r4-r6,lr}
        0x00001f84:    e59fc2c8    ....    LDR      r12,[pc,#712] ; [0x2254] = 0x4000014
        0x00001f88:    03520000    ..R.    CMPEQ    r2,#0
        0x00001f8c:    8affff99    ....    BHI      __fpl_dcheck_NaN2 ; 0x1df8
        0x00001f90:    e1a00000    ....    MOV      r0,r0
    __fpl_inf_ddiv
        0x00001f94:    e3a0c602    ....    MOV      r12,#0x200000
        0x00001f98:    e17c0081    ..|.    CMN      r12,r1,LSL #1
        0x00001f9c:    1a000005    ....    BNE      0x1fb8 ; __fpl_inf_ddiv + 36
        0x00001fa0:    e17c0083    ..|.    CMN      r12,r3,LSL #1
        0x00001fa4:    0a000008    ....    BEQ      0x1fcc ; __fpl_inf_ddiv + 56
        0x00001fa8:    e0313003    .01.    EORS     r3,r1,r3
        0x00001fac:    e3c11102    ....    BIC      r1,r1,#0x80000000
        0x00001fb0:    43811102    ...C    ORRMI    r1,r1,#0x80000000
        0x00001fb4:    e12fff1e    ../.    BX       lr
        0x00001fb8:    e0213003    .0!.    EOR      r3,r1,r3
        0x00001fbc:    e3a00000    ....    MOV      r0,#0
        0x00001fc0:    e2031102    ....    AND      r1,r3,#0x80000000
        0x00001fc4:    e12fff1e    ../.    BX       lr
        0x00001fc8:    e8bd4070    p@..    POP      {r4-r6,lr}
        0x00001fcc:    e3a00000    ....    MOV      r0,#0
        0x00001fd0:    e59f1280    ....    LDR      r1,[pc,#640] ; [0x2258] = 0x7ff80000
        0x00001fd4:    e12fff1e    ../.    BX       lr
    _ddiv_mantissas
        0x00001fd8:    e92d40e0    .@-.    PUSH     {r5-r7,lr}
        0x00001fdc:    e1a05000    .P..    MOV      r5,r0
        0x00001fe0:    e3a0e001    ....    MOV      lr,#1
        0x00001fe4:    e1a0c083    ....    LSL      r12,r3,#1
        0x00001fe8:    e92d0010    ..-.    STMDB    sp!,{r4}
        0x00001fec:    e1a04001    .@..    MOV      r4,r1
        0x00001ff0:    e1a0cd2c    ,...    LSR      r12,r12,#26
        0x00001ff4:    e28f1e15    ....    ADR      r1,{pc}+0x158 ; 0x214c
        0x00001ff8:    e791c10c    ....    LDR      r12,[r1,r12,LSL #2]
        0x00001ffc:    e3a01000    ....    MOV      r1,#0
        0x00002000:    e080629c    .b..    UMULL    r6,r0,r12,r2
        0x00002004:    e3a06000    .`..    MOV      r6,#0
        0x00002008:    e0a1039c    ....    UMLAL    r0,r1,r12,r3
        0x0000200c:    e0900000    ....    ADDS     r0,r0,r0
        0x00002010:    e0a11001    ....    ADC      r1,r1,r1
        0x00002014:    e0560000    ..V.    SUBS     r0,r6,r0
        0x00002018:    e0c61001    ....    SBC      r1,r6,r1
        0x0000201c:    e0ac6c91    .l..    UMLAL    r6,r12,r1,r12
        0x00002020:    e3a01000    ....    MOV      r1,#0
        0x00002024:    e080629c    .b..    UMULL    r6,r0,r12,r2
        0x00002028:    e3a06000    .`..    MOV      r6,#0
        0x0000202c:    e0a1039c    ....    UMLAL    r0,r1,r12,r3
        0x00002030:    e0900000    ....    ADDS     r0,r0,r0
        0x00002034:    e0a11001    ....    ADC      r1,r1,r1
        0x00002038:    e0560000    ..V.    SUBS     r0,r6,r0
        0x0000203c:    e0c61001    ....    SBC      r1,r6,r1
        0x00002040:    e0ac6c91    .l..    UMLAL    r6,r12,r1,r12
        0x00002044:    e3a01000    ....    MOV      r1,#0
        0x00002048:    e080659c    .e..    UMULL    r6,r0,r12,r5
        0x0000204c:    e0a1049c    ....    UMLAL    r0,r1,r12,r4
        0x00002050:    e0876192    .a..    UMULL    r6,r7,r2,r1
        0x00002054:    e0ae6093    .`..    UMLAL    r6,lr,r3,r0
        0x00002058:    e097700e    .p..    ADDS     r7,r7,lr
        0x0000205c:    e3a0e000    ....    MOV      lr,#0
        0x00002060:    e0ae7193    .q..    UMLAL    r7,lr,r3,r1
        0x00002064:    e2aee000    ....    ADC      lr,lr,#0
        0x00002068:    e0966006    .`..    ADDS     r6,r6,r6
        0x0000206c:    e0b77007    .p..    ADCS     r7,r7,r7
        0x00002070:    e0aee00e    ....    ADC      lr,lr,lr
        0x00002074:    e2766000    .`v.    RSBS     r6,r6,#0
        0x00002078:    e0d57007    .p..    SBCS     r7,r5,r7
        0x0000207c:    e0c4e00e    ....    SBC      lr,r4,lr
        0x00002080:    e0a10e9c    ....    UMLAL    r0,r1,r12,lr
        0x00002084:    e086e79c    ....    UMULL    lr,r6,r12,r7
        0x00002088:    e3a0e000    ....    MOV      lr,#0
        0x0000208c:    e0900006    ....    ADDS     r0,r0,r6
        0x00002090:    e2a11000    ....    ADC      r1,r1,#0
        0x00002094:    e0876092    .`..    UMULL    r6,r7,r2,r0
        0x00002098:    e0ae7192    .q..    UMLAL    r7,lr,r2,r1
        0x0000209c:    e0ae7093    .p..    UMLAL    r7,lr,r3,r0
        0x000020a0:    e0966006    .`..    ADDS     r6,r6,r6
        0x000020a4:    e0b77007    .p..    ADCS     r7,r7,r7
        0x000020a8:    e02ee193    ....    MLA      lr,r3,r1,lr
        0x000020ac:    e0aee00e    ....    ADC      lr,lr,lr
        0x000020b0:    e2766000    .`v.    RSBS     r6,r6,#0
        0x000020b4:    e2f77000    .p..    RSCS     r7,r7,#0
        0x000020b8:    e0c5e00e    ....    SBC      lr,r5,lr
        0x000020bc:    e0876e9c    .n..    UMULL    r6,r7,r12,lr
        0x000020c0:    e3a0e000    ....    MOV      lr,#0
        0x000020c4:    e1a0cf05    ....    LSL      r12,r5,#30
        0x000020c8:    e1a05125    %Q..    LSR      r5,r5,#2
        0x000020cc:    e0900007    ....    ADDS     r0,r0,r7
        0x000020d0:    e2a11000    ....    ADC      r1,r1,#0
        0x000020d4:    e1855f04    ._..    ORR      r5,r5,r4,LSL #30
        0x000020d8:    e1b010a1    ....    LSRS     r1,r1,#1
        0x000020dc:    e1a00060    `...    RRX      r0,r0
        0x000020e0:    e0876092    .`..    UMULL    r6,r7,r2,r0
        0x000020e4:    e2766000    .`v.    RSBS     r6,r6,#0
        0x000020e8:    e0ae7192    .q..    UMLAL    r7,lr,r2,r1
        0x000020ec:    e0ae7093    .p..    UMLAL    r7,lr,r3,r0
        0x000020f0:    e0dc7007    .p..    SBCS     r7,r12,r7
        0x000020f4:    e02ee193    ....    MLA      lr,r3,r1,lr
        0x000020f8:    e0c5e00e    ....    SBC      lr,r5,lr
        0x000020fc:    e0565002    .PV.    SUBS     r5,r6,r2
        0x00002100:    e0d74003    .@..    SBCS     r4,r7,r3
        0x00002104:    e2dee000    ....    SBCS     lr,lr,#0
        0x00002108:    21a06005    .`.!    MOVCS    r6,r5
        0x0000210c:    21a07004    .p.!    MOVCS    r7,r4
        0x00002110:    e2b00000    ....    ADCS     r0,r0,#0
        0x00002114:    e2a11000    ....    ADC      r1,r1,#0
        0x00002118:    e3560001    ..V.    CMP      r6,#1
        0x0000211c:    33570001    ..W3    CMPCC    r7,#1
        0x00002120:    e0b00000    ....    ADCS     r0,r0,r0
        0x00002124:    e0a11001    ....    ADC      r1,r1,r1
        0x00002128:    e3110102    ....    TST      r1,#0x80000000
        0x0000212c:    18bd00f0    ....    POPNE    {r4-r7}
        0x00002130:    13a03002    .0..    MOVNE    r3,#2
        0x00002134:    18bd8000    ....    LDMNE    sp!,{pc}
        0x00002138:    e3a03001    .0..    MOV      r3,#1
        0x0000213c:    e0900000    ....    ADDS     r0,r0,r0
        0x00002140:    e8bd00f0    ....    POP      {r4-r7}
        0x00002144:    e0a11001    ....    ADC      r1,r1,r1
        0x00002148:    e8bd8000    ....    LDM      sp!,{pc}
    $d
        0x0000214c:    fc0fc0fc    ....    DCD    4228890876
        0x00002150:    f83e0f83    ..>.    DCD    4164816771
        0x00002154:    f4898d5f    _...    DCD    4102655327
        0x00002158:    f0f0f0f0    ....    DCD    4042322160
        0x0000215c:    ed7303b5    ..s.    DCD    3983737781
        0x00002160:    ea0ea0ea    ....    DCD    3926827242
        0x00002164:    e6c2b448    H...    DCD    3871519816
        0x00002168:    e38e38e3    .8..    DCD    3817748707
        0x0000216c:    e070381c    .8p.    DCD    3765450780
        0x00002170:    dd67c8a6    ..g.    DCD    3714566310
        0x00002174:    da740da7    ..t.    DCD    3665038759
        0x00002178:    d79435e5    .5..    DCD    3616814565
        0x0000217c:    d4c77b03    .{..    DCD    3569842947
        0x00002180:    d20d20d2    . ..    DCD    3524075730
        0x00002184:    cf6474a8    .td.    DCD    3479467176
        0x00002188:    cccccccc    ....    DCD    3435973836
        0x0000218c:    ca4587e6    ..E.    DCD    3393554406
        0x00002190:    c7ce0c7c    |...    DCD    3352169596
        0x00002194:    c565c87b    {.e.    DCD    3311782011
        0x00002198:    c30c30c3    .0..    DCD    3272356035
        0x0000219c:    c0c0c0c0    ....    DCD    3233857728
        0x000021a0:    be82fa0b    ....    DCD    3196254731
        0x000021a4:    bc52640b    .dR.    DCD    3159516171
        0x000021a8:    ba2e8ba2    ....    DCD    3123612578
        0x000021ac:    b81702e0    ....    DCD    3088515808
        0x000021b0:    b60b60b6    .`..    DCD    3054198966
        0x000021b4:    b40b40b4    .@..    DCD    3020636340
        0x000021b8:    b21642c8    .B..    DCD    2987803336
        0x000021bc:    b02c0b02    ..,.    DCD    2955676418
        0x000021c0:    ae4c415c    \AL.    DCD    2924233052
        0x000021c4:    ac769184    ..v.    DCD    2893451652
        0x000021c8:    aaaaaaaa    ....    DCD    2863311530
        0x000021cc:    a8e83f57    W?..    DCD    2833792855
        0x000021d0:    a72f0539    9./.    DCD    2804876601
        0x000021d4:    a57eb502    ..~.    DCD    2776544514
        0x000021d8:    a3d70a3d    =...    DCD    2748779069
        0x000021dc:    a237c32b    +.7.    DCD    2721563435
        0x000021e0:    a0a0a0a0    ....    DCD    2694881440
        0x000021e4:    9f1165e7    .e..    DCD    2668717543
        0x000021e8:    9d89d89d    ....    DCD    2643056797
        0x000021ec:    9c09c09c    ....    DCD    2617884828
        0x000021f0:    9a90e7d9    ....    DCD    2593187801
        0x000021f4:    991f1a51    Q...    DCD    2568952401
        0x000021f8:    97b425ed    .%..    DCD    2545165805
        0x000021fc:    964fda6c    l.O.    DCD    2521815660
        0x00002200:    94f2094f    O...    DCD    2498890063
        0x00002204:    939a85c4    ....    DCD    2476377540
        0x00002208:    92492492    .$I.    DCD    2454267026
        0x0000220c:    90fdbc09    ....    DCD    2432547849
        0x00002210:    8fb823ee    .#..    DCD    2411209710
        0x00002214:    8e78356d    m5x.    DCD    2390242669
        0x00002218:    8d3dcb08    ..=.    DCD    2369637128
        0x0000221c:    8c08c08c    ....    DCD    2349383820
        0x00002220:    8ad8f2fb    ....    DCD    2329473787
        0x00002224:    89ae4089    .@..    DCD    2309898377
        0x00002228:    88888888    ....    DCD    2290649224
        0x0000222c:    8767ab5f    _.g.    DCD    2271718239
        0x00002230:    864b8a7d    }.K.    DCD    2253097597
        0x00002234:    85340853    S.4.    DCD    2234779731
        0x00002238:    84210842    B.!.    DCD    2216757314
        0x0000223c:    83126e97    .n..    DCD    2199023255
        0x00002240:    82082082    . ..    DCD    2181570690
        0x00002244:    81020408    ....    DCD    2164392968
        0x00002248:    80000000    ....    DCD    2147483648
        0x0000224c:    07ff0000    ....    DCD    134152192
        0x00002250:    7ff00000    ....    DCD    2146435072
        0x00002254:    04000014    ....    DCD    67108884
        0x00002258:    7ff80000    ....    DCD    2146959360
    $a
    x$fpl$dflt
    __aeabi_i2d
    _dflt
        0x0000225c:    e2103102    .1..    ANDS     r3,r0,#0x80000000
        0x00002260:    12601000    ..`.    RSBNE    r1,r0,#0
        0x00002264:    01a01000    ....    MOVEQ    r1,r0
        0x00002268:    e3833101    .1..    ORR      r3,r3,#0x40000000
    __dflt_normalise
        0x0000226c:    e16fcf11    ..o.    CLZ      r12,r1
        0x00002270:    e283361f    .6..    ADD      r3,r3,#0x1f00000
        0x00002274:    e1b01c11    ....    LSLS     r1,r1,r12
        0x00002278:    e0433a0c    .:C.    SUB      r3,r3,r12,LSL #20
        0x0000227c:    e1a00a81    ....    LSL      r0,r1,#21
        0x00002280:    012fff1e    ../.    BXEQ     lr
        0x00002284:    e08315c1    ....    ADD      r1,r3,r1,ASR #11
        0x00002288:    e12fff1e    ../.    BX       lr
    x$fpl$dmul
    __aeabi_dmul
    _dmul
        0x0000228c:    e59fc1b8    ....    LDR      r12,[pc,#440] ; [0x244c] = 0x7ff0000
        0x00002290:    e92d4070    p@-.    PUSH     {r4-r6,lr}
        0x00002294:    e1dce221    !...    BICS     lr,r12,r1,LSR #4
        0x00002298:    11dce223    #...    BICSNE   lr,r12,r3,LSR #4
        0x0000229c:    0a000053    S...    BEQ      0x23f0 ; __aeabi_dmul + 356
        0x000022a0:    e0215003    .P!.    EOR      r5,r1,r3
        0x000022a4:    e00ce221    !...    AND      lr,r12,r1,LSR #4
        0x000022a8:    e18eefa5    ....    ORR      lr,lr,r5,LSR #31
        0x000022ac:    e01c5223    #R..    ANDS     r5,r12,r3,LSR #4
        0x000022b0:    1111020c    ....    TSTNE    r1,r12,LSL #4
        0x000022b4:    0a000047    G...    BEQ      0x23d8 ; __aeabi_dmul + 332
        0x000022b8:    e08ee005    ....    ADD      lr,lr,r5
        0x000022bc:    e1c1128c    ....    BIC      r1,r1,r12,LSL #5
        0x000022c0:    e1c3328c    .2..    BIC      r3,r3,r12,LSL #5
        0x000022c4:    e24ee7ff    ..N.    SUB      lr,lr,#0x3fc0000
        0x000022c8:    e3811601    ....    ORR      r1,r1,#0x100000
        0x000022cc:    e3833601    .6..    ORR      r3,r3,#0x100000
        0x000022d0:    e08c4291    .B..    UMULL    r4,r12,r1,r2
        0x000022d4:    e0856390    .c..    UMULL    r6,r5,r0,r3
        0x000022d8:    e0966004    .`..    ADDS     r6,r6,r4
        0x000022dc:    e0b5500c    .P..    ADCS     r5,r5,r12
        0x000022e0:    e08c4391    .C..    UMULL    r4,r12,r1,r3
        0x000022e4:    e2ac3000    .0..    ADC      r3,r12,#0
        0x000022e8:    e08c1290    ....    UMULL    r1,r12,r0,r2
        0x000022ec:    e3e02003    . ..    MVN      r2,#3
        0x000022f0:    e096600c    .`..    ADDS     r6,r6,r12
        0x000022f4:    e3a0c014    ....    MOV      r12,#0x14
        0x000022f8:    e0b55004    .P..    ADCS     r5,r5,r4
        0x000022fc:    e2b33000    .0..    ADCS     r3,r3,#0
        0x00002300:    e1110001    ....    TST      r1,r1
        0x00002304:    13866001    .`..    ORRNE    r6,r6,#1
        0x00002308:    e3530c02    ..S.    CMP      r3,#0x200
        0x0000230c:    e2acc000    ....    ADC      r12,r12,#0
        0x00002310:    e26c4020     @l.    RSB      r4,r12,#0x20
        0x00002314:    e0a2284e    N(..    ADC      r2,r2,lr,ASR #16
        0x00002318:    e1a01413    ....    LSL      r1,r3,r4
        0x0000231c:    e1a00415    ....    LSL      r0,r5,r4
        0x00002320:    e1811c35    5...    ORR      r1,r1,r5,LSR r12
        0x00002324:    e1800c36    6...    ORR      r0,r0,r6,LSR r12
        0x00002328:    e1b04416    .D..    LSLS     r4,r6,r4
        0x0000232c:    e0815a02    .Z..    ADD      r5,r1,r2,LSL #20
        0x00002330:    e0251f8e    ..%.    EOR      r1,r5,lr,LSL #31
        0x00002334:    0a000009    ....    BEQ      0x2360 ; __aeabi_dmul + 212
        0x00002338:    e1b0c084    ....    LSLS     r12,r4,#1
        0x0000233c:    33a04103    .A.3    MOVCC    r4,#0xc0000000
        0x00002340:    3a000006    ...:    BCC      0x2360 ; __aeabi_dmul + 212
        0x00002344:    03833102    .1..    ORREQ    r3,r3,#0x80000000
        0x00002348:    e2b00000    ....    ADCS     r0,r0,#0
        0x0000234c:    e2a11000    ....    ADC      r1,r1,#0
        0x00002350:    e1100fa3    ....    TST      r0,r3,LSR #31
        0x00002354:    e3a04101    .A..    MOV      r4,#0x40000000
        0x00002358:    e1c00fa3    ....    BIC      r0,r0,r3,LSR #31
        0x0000235c:    13a04103    .A..    MOVNE    r4,#0xc0000000
        0x00002360:    e59fc0e8    ....    LDR      r12,[pc,#232] ; [0x2450] = 0x7ff00000
        0x00002364:    e3150102    ....    TST      r5,#0x80000000
        0x00002368:    4a00000b    ...J    BMI      0x239c ; __aeabi_dmul + 272
        0x0000236c:    e115000c    ....    TST      r5,r12
        0x00002370:    11dcc001    ....    BICSNE   r12,r12,r1
        0x00002374:    0a000008    ....    BEQ      0x239c ; __aeabi_dmul + 272
        0x00002378:    e8bd8070    p...    POP      {r4-r6,pc}
        0x0000237c:    e1b04f8e    .O..    LSLS     r4,lr,#31
        0x00002380:    531c0502    ...S    TSTPL    r12,#0x800000
        0x00002384:    431c0501    ...C    TSTMI    r12,#0x400000
        0x00002388:    03a04101    .A..    MOVEQ    r4,#0x40000000
        0x0000238c:    13a04103    .A..    MOVNE    r4,#0xc0000000
        0x00002390:    02900001    ....    ADDSEQ   r0,r0,#1
        0x00002394:    e2a11000    ....    ADC      r1,r1,#0
        0x00002398:    eafffff0    ....    B        0x2360 ; __aeabi_dmul + 212
        0x0000239c:    e35e0301    ..^.    CMP      lr,#0x4000000
        0x000023a0:    a384c013    ....    ORRGE    r12,r4,#0x13
        0x000023a4:    e8bd4070    p@..    POP      {r4-r6,lr}
        0x000023a8:    a2411206    ..A.    SUBGE    r1,r1,#0x60000000
        0x000023ac:    a38cc201    ....    ORRGE    r12,r12,#0x10000000
        0x000023b0:    aa000003    ....    BGE      0x23c4 ; __aeabi_dmul + 312
        0x000023b4:    e3a00000    ....    MOV      r0,#0
        0x000023b8:    e2811206    ....    ADD      r1,r1,#0x60000000
        0x000023bc:    e2011102    ....    AND      r1,r1,#0x80000000
        0x000023c0:    e12fff1e    ../.    BX       lr
        0x000023c4:    e3e00000    ....    MVN      r0,#0
        0x000023c8:    e18110a0    ....    ORR      r1,r1,r0,LSR #1
        0x000023cc:    e0211620     .!.    EOR      r1,r1,r0,LSR #12
        0x000023d0:    e3a00000    ....    MOV      r0,#0
        0x000023d4:    e12fff1e    ../.    BX       lr
        0x000023d8:    e1a01f8e    ....    LSL      r1,lr,#31
        0x000023dc:    e3a00000    ....    MOV      r0,#0
        0x000023e0:    e8bd8070    p...    POP      {r4-r6,pc}
        0x000023e4:    e1a01f8e    ....    LSL      r1,lr,#31
        0x000023e8:    e3a00000    ....    MOV      r0,#0
        0x000023ec:    e8bd8070    p...    POP      {r4-r6,pc}
        0x000023f0:    e1a05081    .P..    LSL      r5,r1,#1
        0x000023f4:    e155028c    ..U.    CMP      r5,r12,LSL #5
        0x000023f8:    03500000    ..P.    CMPEQ    r0,#0
        0x000023fc:    e1a06083    .`..    LSL      r6,r3,#1
        0x00002400:    9156028c    ..V.    CMPLS    r6,r12,LSL #5
        0x00002404:    e8bd4070    p@..    POP      {r4-r6,lr}
        0x00002408:    e59fc044    D...    LDR      r12,[pc,#68] ; [0x2454] = 0x4000013
        0x0000240c:    03520000    ..R.    CMPEQ    r2,#0
        0x00002410:    8afffe78    x...    BHI      __fpl_dcheck_NaN2 ; 0x1df8
        0x00002414:    e1a00000    ....    MOV      r0,r0
    __fpl_inf_dmul
        0x00002418:    e3a0c602    ....    MOV      r12,#0x200000
        0x0000241c:    e15c0081    ..\.    CMP      r12,r1,LSL #1
        0x00002420:    915c0083    ..\.    CMPLS    r12,r3,LSL #1
        0x00002424:    8a000005    ....    BHI      0x2440 ; __fpl_inf_dmul + 40
        0x00002428:    e3a00000    ....    MOV      r0,#0
        0x0000242c:    e0211003    ..!.    EOR      r1,r1,r3
        0x00002430:    e2011102    ....    AND      r1,r1,#0x80000000
        0x00002434:    e381147f    ....    ORR      r1,r1,#0x7f000000
        0x00002438:    e381160f    ....    ORR      r1,r1,#0xf00000
        0x0000243c:    e12fff1e    ../.    BX       lr
        0x00002440:    e59f1010    ....    LDR      r1,[pc,#16] ; [0x2458] = 0x7ff80000
        0x00002444:    e3a00000    ....    MOV      r0,#0
        0x00002448:    e12fff1e    ../.    BX       lr
    $d
        0x0000244c:    07ff0000    ....    DCD    134152192
        0x00002450:    7ff00000    ....    DCD    2146435072
        0x00002454:    04000013    ....    DCD    67108883
        0x00002458:    7ff80000    ....    DCD    2146959360
    $a
    x$fpl$dunder
    __dunder
        0x0000245c:    e1110001    ....    TST      r1,r1
        0x00002460:    e1a02a21    !*..    LSR      r2,r1,#20
        0x00002464:    e3a03c06    .<..    MOV      r3,#0x600
        0x00002468:    e1c11a02    ....    BIC      r1,r1,r2,LSL #20
        0x0000246c:    438cc801    ...C    ORRMI    r12,r12,#0x10000
        0x00002470:    e2833001    .0..    ADD      r3,r3,#1
        0x00002474:    e3c22b02    .+..    BIC      r2,r2,#0x800
        0x00002478:    e0532002    . S.    SUBS     r2,r3,r2
        0x0000247c:    43e020fe    . .C    MVNMI    r2,#0xfe
        0x00002480:    e3520035    5.R.    CMP      r2,#0x35
        0x00002484:    e3811601    ....    ORR      r1,r1,#0x100000
        0x00002488:    8a000022    "...    BHI      0x2518 ; __dunder + 188
        0x0000248c:    0a00001b    ....    BEQ      0x2500 ; __dunder + 164
        0x00002490:    e3520015    ..R.    CMP      r2,#0x15
        0x00002494:    3a000010    ...:    BCC      0x24dc ; __dunder + 128
        0x00002498:    e2522020      R.    SUBS     r2,r2,#0x20
        0x0000249c:    9a000006    ....    BLS      0x24bc ; __dunder + 96
        0x000024a0:    e3500000    ..P.    CMP      r0,#0
        0x000024a4:    e2623020     0b.    RSB      r3,r2,#0x20
        0x000024a8:    e1a00231    1...    LSR      r0,r1,r2
        0x000024ac:    e1a02311    .#..    LSL      r2,r1,r3
        0x000024b0:    e3a01000    ....    MOV      r1,#0
        0x000024b4:    13822001    . ..    ORRNE    r2,r2,#1
        0x000024b8:    ea000019    ....    B        0x2524 ; __dunder + 200
        0x000024bc:    e2623000    .0b.    RSB      r3,r2,#0
        0x000024c0:    e2822020      ..    ADD      r2,r2,#0x20
        0x000024c4:    e1a01311    ....    LSL      r1,r1,r3
        0x000024c8:    e1811230    0...    ORR      r1,r1,r0,LSR r2
        0x000024cc:    e1a02310    .#..    LSL      r2,r0,r3
        0x000024d0:    e1a00001    ....    MOV      r0,r1
        0x000024d4:    e3a01000    ....    MOV      r1,#0
        0x000024d8:    ea000011    ....    B        0x2524 ; __dunder + 200
        0x000024dc:    e2623020     0b.    RSB      r3,r2,#0x20
        0x000024e0:    e92d0010    ..-.    STMDB    sp!,{r4}
        0x000024e4:    e1a04310    .C..    LSL      r4,r0,r3
        0x000024e8:    e1a03311    .3..    LSL      r3,r1,r3
        0x000024ec:    e1830230    0...    ORR      r0,r3,r0,LSR r2
        0x000024f0:    e1a01231    1...    LSR      r1,r1,r2
        0x000024f4:    e1a02004    . ..    MOV      r2,r4
        0x000024f8:    e8bd0010    ....    LDM      sp!,{r4}
        0x000024fc:    ea000008    ....    B        0x2524 ; __dunder + 200
        0x00002500:    e1902601    .&..    ORRS     r2,r0,r1,LSL #12
        0x00002504:    e3a00000    ....    MOV      r0,#0
        0x00002508:    e3a01000    ....    MOV      r1,#0
        0x0000250c:    e3a02102    .!..    MOV      r2,#0x80000000
        0x00002510:    12822001    . ..    ADDNE    r2,r2,#1
        0x00002514:    ea000002    ....    B        0x2524 ; __dunder + 200
        0x00002518:    e3a02001    . ..    MOV      r2,#1
        0x0000251c:    e3a01000    ....    MOV      r1,#0
        0x00002520:    e3a00000    ....    MOV      r0,#0
        0x00002524:    e31c0801    ....    TST      r12,#0x10000
        0x00002528:    13811102    ....    ORRNE    r1,r1,#0x80000000
        0x0000252c:    e1120002    ....    TST      r2,r2
        0x00002530:    e3ccc801    ....    BIC      r12,r12,#0x10000
        0x00002534:    012fff1e    ../.    BXEQ     lr
        0x00002538:    e1b02082    . ..    LSLS     r2,r2,#1
        0x0000253c:    3a000002    ...:    BCC      0x254c ; __dunder + 240
        0x00002540:    0a000002    ....    BEQ      0x2550 ; __dunder + 244
        0x00002544:    e2900001    ....    ADDS     r0,r0,#1
        0x00002548:    e2a11000    ....    ADC      r1,r1,#0
        0x0000254c:    e12fff1e    ../.    BX       lr
        0x00002550:    e1b02f4c    L/..    ASRS     r2,r12,#30
        0x00002554:    4afffffa    ...J    BMI      0x2544 ; __dunder + 232
        0x00002558:    1afffffb    ....    BNE      0x254c ; __dunder + 240
        0x0000255c:    e2900001    ....    ADDS     r0,r0,#1
        0x00002560:    e2a11000    ....    ADC      r1,r1,#0
        0x00002564:    e3c00001    ....    BIC      r0,r0,#1
        0x00002568:    eafffff7    ....    B        0x254c ; __dunder + 240
        0x0000256c:    e12fff1e    ../.    BX       lr
    __dunder_d
        0x00002570:    e12fff1e    ../.    BX       lr
    x$fpl$f2d
    __aeabi_f2d
    _f2d
        0x00002574:    e280c502    ....    ADD      r12,r0,#0x800000
        0x00002578:    e31c047f    ....    TST      r12,#0x7f000000
        0x0000257c:    0a000005    ....    BEQ      0x2598 ; __aeabi_f2d + 36
        0x00002580:    e1b011c0    ....    ASRS     r1,r0,#3
        0x00002584:    e1a00e80    ....    LSL      r0,r0,#29
        0x00002588:    e281130e    ....    ADD      r1,r1,#0x38000000
        0x0000258c:    512fff1e    ../Q    BXPL     lr
        0x00002590:    e2411207    ..A.    SUB      r1,r1,#0x70000000
        0x00002594:    e12fff1e    ../.    BX       lr
        0x00002598:    e31c0502    ....    TST      r12,#0x800000
        0x0000259c:    0a000005    ....    BEQ      0x25b8 ; __aeabi_f2d + 68
        0x000025a0:    e1a01000    ....    MOV      r1,r0
        0x000025a4:    e1b00080    ....    LSLS     r0,r0,#1
        0x000025a8:    012fff1e    ../.    BXEQ     lr
        0x000025ac:    e3a00000    ....    MOV      r0,#0
        0x000025b0:    e1a01060    `...    RRX      r1,r0
        0x000025b4:    e12fff1e    ../.    BX       lr
        0x000025b8:    e59fc014    ....    LDR      r12,[pc,#20] ; [0x25d4] = 0x4000018
        0x000025bc:    e1b02480    .$..    LSLS     r2,r0,#9
        0x000025c0:    1a000007    ....    BNE      __fpl_fcheck_NaN1 ; 0x25e4
        0x000025c4:    e1a00000    ....    MOV      r0,r0
    __fpl_inf_f2d
        0x000025c8:    e3801607    ....    ORR      r1,r0,#0x700000
        0x000025cc:    e1a00002    ....    MOV      r0,r2
        0x000025d0:    e12fff1e    ../.    BX       lr
    $d
        0x000025d4:    04000018    ....    DCD    67108888
    $a
    x$fpl$fcheck
    __fpl_fcheck_NaN2
        0x000025d8:    e59f0000    ....    LDR      r0,[pc,#0] ; [0x25e0] = 0x7fc00000
        0x000025dc:    ea0000f7    ....    B        __fpl_return_NaN ; 0x29c0
    $d
        0x000025e0:    7fc00000    ....    DCD    2143289344
    $a
    x$fpl$fcheck1
    __fpl_fcheck_NaN1
        0x000025e4:    e59f0000    ....    LDR      r0,[pc,#0] ; [0x25ec] = 0x7fc00000
        0x000025e8:    ea0000f4    ....    B        __fpl_return_NaN ; 0x29c0
    $d
        0x000025ec:    7fc00000    ....    DCD    2143289344
    $a
    x$fpl$fdiv
    _fdiv1
    __aeabi_fdiv
    _fdiv
        0x000025f0:    e3a0c8ff    ....    MOV      r12,#0xff0000
        0x000025f4:    e01c23a0    .#..    ANDS     r2,r12,r0,LSR #7
        0x000025f8:    101c33a1    .3..    ANDSNE   r3,r12,r1,LSR #7
        0x000025fc:    1132000c    ..2.    TEQNE    r2,r12
        0x00002600:    1133000c    ..3.    TEQNE    r3,r12
        0x00002604:    0a00004f    O...    BEQ      0x2748 ; _fdiv1 + 344
        0x00002608:    e1300001    ..0.    TEQ      r0,r1
        0x0000260c:    e380c502    ....    ORR      r12,r0,#0x800000
        0x00002610:    e3810502    ....    ORR      r0,r1,#0x800000
        0x00002614:    43822c01    .,.C    ORRMI    r2,r2,#0x100
        0x00002618:    e3cc14ff    ....    BIC      r1,r12,#0xff000000
        0x0000261c:    e3c004ff    ....    BIC      r0,r0,#0xff000000
        0x00002620:    e92d4000    .@-.    STMDB    sp!,{lr}
        0x00002624:    e28fcf4d    M...    ADR      r12,{pc}+0x13c ; 0x2760
        0x00002628:    e75ce8a0    ..\.    LDRB     lr,[r12,-r0,LSR #17]
        0x0000262c:    e1510000    ..Q.    CMP      r1,r0
        0x00002630:    e2600000    ..`.    RSB      r0,r0,#0
        0x00002634:    e0422003    . B.    SUB      r2,r2,r3
        0x00002638:    e1a0e08e    ....    LSL      lr,lr,#1
        0x0000263c:    31a01081    ...1    LSLCC    r1,r1,#1
        0x00002640:    e00c0e90    ....    MUL      r12,r0,lr
        0x00002644:    e282287d    }(..    ADD      r2,r2,#0x7d0000
        0x00002648:    e1a0c24c    L...    ASR      r12,r12,#4
        0x0000264c:    e0030e9c    ....    MUL      r3,r12,lr
        0x00002650:    e1a0e38e    ....    LSL      lr,lr,#7
        0x00002654:    e1a0c421    !...    LSR      r12,r1,#8
        0x00002658:    e1a01581    ....    LSL      r1,r1,#11
        0x0000265c:    e08eeac3    ....    ADD      lr,lr,r3,ASR #21
        0x00002660:    e00c0c9e    ....    MUL      r12,lr,r12
        0x00002664:    e1a03a2c    ,:..    LSR      r3,r12,#20
        0x00002668:    e0211390    ..!.    MLA      r1,r0,r3,r1
        0x0000266c:    e1a0c421    !...    LSR      r12,r1,#8
        0x00002670:    e1a01601    ....    LSL      r1,r1,#12
        0x00002674:    e00c0c9e    ....    MUL      r12,lr,r12
        0x00002678:    e202ec01    ....    AND      lr,r2,#0x100
        0x0000267c:    e0a22842    B(..    ADC      r2,r2,r2,ASR #16
        0x00002680:    e1a0c9ac    ....    LSR      r12,r12,#19
        0x00002684:    e0211c90    ..!.    MLA      r1,r0,r12,r1
        0x00002688:    e1710000    ..q.    CMN      r1,r0
        0x0000268c:    20811000    ...     ADDCS    r1,r1,r0
        0x00002690:    e0ac3603    .6..    ADC      r3,r12,r3,LSL #12
        0x00002694:    e3510001    ..Q.    CMP      r1,#1
        0x00002698:    238ee109    ...#    ORRCS    lr,lr,#0x40000002
        0x0000269c:    e1700081    ..p.    CMN      r0,r1,LSL #1
        0x000026a0:    238ee105    ...#    ORRCS    lr,lr,#0x40000001
        0x000026a4:    038ee004    ....    ORREQ    lr,lr,#4
        0x000026a8:    e38e1008    ....    ORR      r1,lr,#8
        0x000026ac:    e8bd4000    .@..    LDM      sp!,{lr}
        0x000026b0:    e0a30b82    ....    ADC      r0,r3,r2,LSL #23
        0x000026b4:    1352073f    ?.R.    CMPNE    r2,#0xfc0000
        0x000026b8:    312fff1e    ../1    BXCC     lr
        0x000026bc:    e1811f80    ....    ORR      r1,r1,r0,LSL #31
        0x000026c0:    03c00001    ....    BICEQ    r0,r0,#1
        0x000026c4:    e352073f    ?.R.    CMP      r2,#0xfc0000
        0x000026c8:    312fff1e    ../1    BXCC     lr
        0x000026cc:    5a000014    ...Z    BPL      0x2724 ; _fdiv1 + 308
        0x000026d0:    e31200f0    ....    TST      r2,#0xf0
        0x000026d4:    12800206    ....    ADDNE    r0,r0,#0x60000000
        0x000026d8:    12000102    ....    ANDNE    r0,r0,#0x80000000
        0x000026dc:    e12fff1e    ../.    BX       lr
    $d
        0x000026e0:    83828100    ....    DCD    2206368000
        0x000026e4:    87868584    ....    DCD    2273740164
        0x000026e8:    8c8b8988    ....    DCD    2357954952
        0x000026ec:    918f8e8d    ....    DCD    2442104461
        0x000026f0:    96959392    ....    DCD    2526385042
        0x000026f4:    9c9a9997    ....    DCD    2627377559
        0x000026f8:    a2a09f9d    ....    DCD    2728435613
        0x000026fc:    a8a7a5a3    ....    DCD    2829559203
        0x00002700:    b0aeacaa    ....    DCD    2964237482
        0x00002704:    b7b5b3b2    ....    DCD    3082138546
        0x00002708:    c0bebcb9    ....    DCD    3233725625
        0x0000270c:    c9c7c5c2    ....    DCD    3385312706
        0x00002710:    d4d1cecc    ....    DCD    3570519756
        0x00002714:    dfdcd9d7    ....    DCD    3755792855
        0x00002718:    ece9e6e2    ....    DCD    3974751970
        0x0000271c:    faf7f3f0    ....    DCD    4210553840
        0x00002720:    000000fe    ....    DCD    254
    $a
        0x00002724:    e1a0c080    ....    LSL      r12,r0,#1
        0x00002728:    e28cc401    ....    ADD      r12,r12,#0x1000000
        0x0000272c:    e35c04fe    ..\.    CMP      r12,#0xfe000000
        0x00002730:    212fff1e    ../!    BXCS     lr
        0x00002734:    e2500206    ..P.    SUBS     r0,r0,#0x60000000
        0x00002738:    e3a004ff    ....    MOV      r0,#0xff000000
        0x0000273c:    41a000c0    ...A    ASRMI    r0,r0,#1
        0x00002740:    51a000a0    ...Q    LSRPL    r0,r0,#1
        0x00002744:    e12fff1e    ../.    BX       lr
        0x00002748:    e1300001    ..0.    TEQ      r0,r1
        0x0000274c:    43822c01    .,.C    ORRMI    r2,r2,#0x100
        0x00002750:    e152000c    ..R.    CMP      r2,r12
        0x00002754:    e00c33a1    .3..    AND      r3,r12,r1,LSR #7
        0x00002758:    3153000c    ..S1    CMPCC    r3,r12
        0x0000275c:    2a000004    ...*    BCS      0x2774 ; _fdiv1 + 388
        0x00002760:    e31308ff    ....    TST      r3,#0xff0000
        0x00002764:    0a000012    ....    BEQ      0x27b4 ; __fpl_inf_fdiv + 40
        0x00002768:    e0200001    .. .    EOR      r0,r0,r1
        0x0000276c:    e2000102    ....    AND      r0,r0,#0x80000000
        0x00002770:    e12fff1e    ../.    BX       lr
        0x00002774:    e3a0c401    ....    MOV      r12,#0x1000000
        0x00002778:    e17c0080    ..|.    CMN      r12,r0,LSL #1
        0x0000277c:    917c0081    ..|.    CMNLS    r12,r1,LSL #1
        0x00002780:    e59fc044    D...    LDR      r12,[pc,#68] ; [0x27cc] = 0x4000004
        0x00002784:    8affff93    ....    BHI      __fpl_fcheck_NaN2 ; 0x25d8
        0x00002788:    e1a00000    ....    MOV      r0,r0
    __fpl_inf_fdiv
        0x0000278c:    e3a0c401    ....    MOV      r12,#0x1000000
        0x00002790:    e17c0080    ..|.    CMN      r12,r0,LSL #1
        0x00002794:    017c0081    ..|.    CMNEQ    r12,r1,LSL #1
        0x00002798:    059f0030    0...    LDREQ    r0,[pc,#48] ; [0x27d0] = 0x7fc00000
        0x0000279c:    012fff1e    ../.    BXEQ     lr
        0x000027a0:    e17c0081    ..|.    CMN      r12,r1,LSL #1
        0x000027a4:    03a00000    ....    MOVEQ    r0,#0
        0x000027a8:    13c00102    ....    BICNE    r0,r0,#0x80000000
        0x000027ac:    e1800b82    ....    ORR      r0,r0,r2,LSL #23
        0x000027b0:    e12fff1e    ../.    BX       lr
        0x000027b4:    e31208ff    ....    TST      r2,#0xff0000
        0x000027b8:    059f0010    ....    LDREQ    r0,[pc,#16] ; [0x27d0] = 0x7fc00000
        0x000027bc:    012fff1e    ../.    BXEQ     lr
        0x000027c0:    e38200ff    ....    ORR      r0,r2,#0xff
        0x000027c4:    e1a00b80    ....    LSL      r0,r0,#23
        0x000027c8:    e12fff1e    ../.    BX       lr
    $d
        0x000027cc:    04000004    ....    DCD    67108868
        0x000027d0:    7fc00000    ....    DCD    2143289344
    $a
    x$fpl$ffix
    __aeabi_f2iz
    _ffix
        0x000027d4:    e1b02bc0    .+..    ASRS     r2,r0,#23
        0x000027d8:    e1a03400    .4..    LSL      r3,r0,#8
        0x000027dc:    13833102    .1..    ORRNE    r3,r3,#0x80000000
        0x000027e0:    4a000003    ...J    BMI      0x27f4 ; __aeabi_f2iz + 32
        0x000027e4:    e272209e    . r.    RSBS     r2,r2,#0x9e
        0x000027e8:    9a000009    ....    BLS      0x2814 ; __aeabi_f2iz + 64
        0x000027ec:    e1a00233    3...    LSR      r0,r3,r2
        0x000027f0:    e12fff1e    ../.    BX       lr
        0x000027f4:    e35004cf    ..P.    CMP      r0,#0xcf000000
        0x000027f8:    8a000005    ....    BHI      0x2814 ; __aeabi_f2iz + 64
        0x000027fc:    e3a00000    ....    MOV      r0,#0
        0x00002800:    e21220ff    . ..    ANDS     r2,r2,#0xff
        0x00002804:    03c33102    .1..    BICEQ    r3,r3,#0x80000000
        0x00002808:    e272209e    . r.    RSBS     r2,r2,#0x9e
        0x0000280c:    e0400233    3.@.    SUB      r0,r0,r3,LSR r2
        0x00002810:    e12fff1e    ../.    BX       lr
        0x00002814:    e59fc028    (...    LDR      r12,[pc,#40] ; [0x2844] = 0x4020048
        0x00002818:    e1a01080    ....    LSL      r1,r0,#1
        0x0000281c:    e35104ff    ..Q.    CMP      r1,#0xff000000
        0x00002820:    838cc801    ....    ORRHI    r12,r12,#0x10000
        0x00002824:    8affff6e    n...    BHI      __fpl_fcheck_NaN1 ; 0x25e4
        0x00002828:    11e00fc0    ....    MVNNE    r0,r0,ASR #31
        0x0000282c:    12200102    .. .    EORNE    r0,r0,#0x80000000
        0x00002830:    112fff1e    ../.    BXNE     lr
        0x00002834:    e1a00000    ....    MOV      r0,r0
    __fpl_inf_ffix
        0x00002838:    e1e00fc0    ....    MVN      r0,r0,ASR #31
        0x0000283c:    e2200102    .. .    EOR      r0,r0,#0x80000000
        0x00002840:    e12fff1e    ../.    BX       lr
    $d
        0x00002844:    04020048    H...    DCD    67240008
    $a
    x$fpl$ffixu
    __aeabi_f2uiz
    _ffixu
        0x00002848:    e1b02bc0    .+..    ASRS     r2,r0,#23
        0x0000284c:    e1a03400    .4..    LSL      r3,r0,#8
        0x00002850:    13833102    .1..    ORRNE    r3,r3,#0x80000000
        0x00002854:    4a000003    ...J    BMI      0x2868 ; __aeabi_f2uiz + 32
        0x00002858:    e272209e    . r.    RSBS     r2,r2,#0x9e
        0x0000285c:    3a000006    ...:    BCC      0x287c ; __aeabi_f2uiz + 52
        0x00002860:    e1a00233    3...    LSR      r0,r3,r2
        0x00002864:    e12fff1e    ../.    BX       lr
        0x00002868:    e1a01080    ....    LSL      r1,r0,#1
        0x0000286c:    e351047f    ..Q.    CMP      r1,#0x7f000000
        0x00002870:    2a000001    ...*    BCS      0x287c ; __aeabi_f2uiz + 52
        0x00002874:    e3a00000    ....    MOV      r0,#0
        0x00002878:    e12fff1e    ../.    BX       lr
        0x0000287c:    e59fc020     ...    LDR      r12,[pc,#32] ; [0x28a4] = 0x4020068
        0x00002880:    e1a01080    ....    LSL      r1,r0,#1
        0x00002884:    e35104ff    ..Q.    CMP      r1,#0xff000000
        0x00002888:    838cc801    ....    ORRHI    r12,r12,#0x10000
        0x0000288c:    8affff54    T...    BHI      __fpl_fcheck_NaN1 ; 0x25e4
        0x00002890:    11e00fc0    ....    MVNNE    r0,r0,ASR #31
        0x00002894:    112fff1e    ../.    BXNE     lr
        0x00002898:    e1a00000    ....    MOV      r0,r0
    __fpl_inf_ffixu
        0x0000289c:    e1e00fc0    ....    MVN      r0,r0,ASR #31
        0x000028a0:    e12fff1e    ../.    BX       lr
    $d
        0x000028a4:    04020068    h...    DCD    67240040
    $a
    x$fpl$fflt
    __aeabi_i2f
    _fflt
        0x000028a8:    e2102102    .!..    ANDS     r2,r0,#0x80000000
        0x000028ac:    12600000    ..`.    RSBNE    r0,r0,#0
        0x000028b0:    e3822101    .!..    ORR      r2,r2,#0x40000000
    __fflt_normalise
        0x000028b4:    e16f1f10    ..o.    CLZ      r1,r0
        0x000028b8:    e1b00110    ....    LSLS     r0,r0,r1
        0x000028bc:    e0422b81    .+B.    SUB      r2,r2,r1,LSL #23
        0x000028c0:    e282253e    >%..    ADD      r2,r2,#0xf800000
        0x000028c4:    012fff1e    ../.    BXEQ     lr
        0x000028c8:    e1b01c80    ....    LSLS     r1,r0,#25
        0x000028cc:    e0a20440    @...    ADC      r0,r2,r0,ASR #8
        0x000028d0:    13b0c301    ....    MOVSNE   r12,#0x4000000
        0x000028d4:    23c00001    ...#    BICCS    r0,r0,#1
        0x000028d8:    e12fff1e    ../.    BX       lr
    x$fpl$fnorm2
    __fpl_normalise2
        0x000028dc:    e92d0010    ..-.    STMDB    sp!,{r4}
        0x000028e0:    e31208ff    ....    TST      r2,#0xff0000
        0x000028e4:    e1a00400    ....    LSL      r0,r0,#8
        0x000028e8:    e1a01401    ....    LSL      r1,r1,#8
        0x000028ec:    1a000007    ....    BNE      0x2910 ; __fpl_normalise2 + 52
        0x000028f0:    e16f4f10    .Oo.    CLZ      r4,r0
        0x000028f4:    e1a00410    ....    LSL      r0,r0,r4
        0x000028f8:    e31308ff    ....    TST      r3,#0xff0000
        0x000028fc:    e0422804    .(B.    SUB      r2,r2,r4,LSL #16
        0x00002900:    18bd0010    ....    LDMNE    sp!,{r4}
        0x00002904:    e2822801    .(..    ADD      r2,r2,#0x10000
        0x00002908:    13811102    ....    ORRNE    r1,r1,#0x80000000
        0x0000290c:    112fff1c    ../.    BXNE     r12
        0x00002910:    e16f4f11    .Oo.    CLZ      r4,r1
        0x00002914:    e3800102    ....    ORR      r0,r0,#0x80000000
        0x00002918:    e1a01411    ....    LSL      r1,r1,r4
        0x0000291c:    e0433804    .8C.    SUB      r3,r3,r4,LSL #16
        0x00002920:    e8bd0010    ....    LDM      sp!,{r4}
        0x00002924:    e2833801    .8..    ADD      r3,r3,#0x10000
        0x00002928:    e12fff1c    ../.    BX       r12
    x$fpl$funder
    __funder
        0x0000292c:    e2003102    .1..    AND      r3,r0,#0x80000000
        0x00002930:    e1833ba0    .;..    ORR      r3,r3,r0,LSR #23
        0x00002934:    e3c33c01    .<..    BIC      r3,r3,#0x100
        0x00002938:    e26330c1    .0c.    RSB      r3,r3,#0xc1
        0x0000293c:    e3c31102    ....    BIC      r1,r3,#0x80000000
        0x00002940:    e3510017    ..Q.    CMP      r1,#0x17
        0x00002944:    8a000012    ....    BHI      0x2994 ; __funder + 104
        0x00002948:    e2633020     0c.    RSB      r3,r3,#0x20
        0x0000294c:    e1b01310    ....    LSLS     r1,r0,r3
        0x00002950:    e2633020     0c.    RSB      r3,r3,#0x20
        0x00002954:    e3c004ff    ....    BIC      r0,r0,#0xff000000
        0x00002958:    e3800502    ....    ORR      r0,r0,#0x800000
        0x0000295c:    e1a00330    0...    LSR      r0,r0,r3
        0x00002960:    e2033102    .1..    AND      r3,r3,#0x80000000
        0x00002964:    e1800003    ....    ORR      r0,r0,r3
        0x00002968:    0a000008    ....    BEQ      0x2990 ; __funder + 100
        0x0000296c:    e1a03001    .0..    MOV      r3,r1
        0x00002970:    e1b01083    ....    LSLS     r1,r3,#1
        0x00002974:    3a000004    ...:    BCC      0x298c ; __funder + 96
        0x00002978:    12800001    ....    ADDNE    r0,r0,#1
        0x0000297c:    1a000002    ....    BNE      0x298c ; __funder + 96
        0x00002980:    e1f03fc2    .?..    MVNS     r3,r2,ASR #31
        0x00002984:    92800001    ....    ADDLS    r0,r0,#1
        0x00002988:    33c00001    ...3    BICCC    r0,r0,#1
        0x0000298c:    e12fff1e    ../.    BX       lr
        0x00002990:    e12fff1e    ../.    BX       lr
        0x00002994:    e3510166    f.Q.    CMP      r1,#0x80000019
        0x00002998:    e0833521    !5..    ADD      r3,r3,r1,LSR #10
        0x0000299c:    62030102    ...b    ANDVS    r0,r3,#0x80000000
        0x000029a0:    6a000004    ...j    BVS      0x29b8 ; __funder + 140
        0x000029a4:    e1b00480    ....    LSLS     r0,r0,#9
        0x000029a8:    e2030102    ....    AND      r0,r3,#0x80000000
        0x000029ac:    03120102    ....    TSTEQ    r2,#0x80000000
        0x000029b0:    e2800001    ....    ADD      r0,r0,#1
        0x000029b4:    03c00001    ....    BICEQ    r0,r0,#1
        0x000029b8:    e12fff1e    ../.    BX       lr
    __funder_d
        0x000029bc:    e12fff1e    ../.    BX       lr
    x$fpl$retnan
    __fpl_return_NaN
        0x000029c0:    e20c300f    .0..    AND      r3,r12,#0xf
        0x000029c4:    e3530009    ..S.    CMP      r3,#9
        0x000029c8:    03a00008    ....    MOVEQ    r0,#8
        0x000029cc:    0a000018    ....    BEQ      __fpl_cmpreturn ; 0x2a34
        0x000029d0:    e353000a    ..S.    CMP      r3,#0xa
        0x000029d4:    0a000006    ....    BEQ      0x29f4 ; __fpl_return_NaN + 52
        0x000029d8:    e3530008    ..S.    CMP      r3,#8
        0x000029dc:    112fff1e    ../.    BXNE     lr
        0x000029e0:    031c0040    @...    TSTEQ    r12,#0x40
        0x000029e4:    0a000005    ....    BEQ      0x2a00 ; __fpl_return_NaN + 64
        0x000029e8:    e3a00000    ....    MOV      r0,#0
        0x000029ec:    e3a01000    ....    MOV      r1,#0
        0x000029f0:    e12fff1e    ../.    BX       lr
        0x000029f4:    e31c0040    @...    TST      r12,#0x40
        0x000029f8:    13a00102    ....    MOVNE    r0,#0x80000000
        0x000029fc:    e12fff1e    ../.    BX       lr
        0x00002a00:    e31c0010    ....    TST      r12,#0x10
        0x00002a04:    0a000004    ....    BEQ      0x2a1c ; __fpl_return_NaN + 92
        0x00002a08:    e3c0320f    .2..    BIC      r3,r0,#0xf0000000
        0x00002a0c:    e20024ff    .$..    AND      r2,r0,#0xff000000
        0x00002a10:    e18211a3    ....    ORR      r1,r2,r3,LSR #3
        0x00002a14:    e1a00e83    ....    LSL      r0,r3,#29
        0x00002a18:    e12fff1e    ../.    BX       lr
        0x00002a1c:    e200020e    ....    AND      r0,r0,#0xe0000000
        0x00002a20:    e3c124ff    .$..    BIC      r2,r1,#0xff000000
        0x00002a24:    e1822000    . ..    ORR      r2,r2,r0
        0x00002a28:    e20104ff    ....    AND      r0,r1,#0xff000000
        0x00002a2c:    e1800ee2    ....    ORR      r0,r0,r2,ROR #29
        0x00002a30:    e12fff1e    ../.    BX       lr
    x$fpl$trapveneer
    __fpl_cmpreturn
        0x00002a34:    e31c0601    ....    TST      r12,#0x100000
        0x00002a38:    0a00000a    ....    BEQ      0x2a68 ; __fpl_cmpreturn + 52
        0x00002a3c:    e31c0807    ....    TST      r12,#0x70000
        0x00002a40:    0a000002    ....    BEQ      0x2a50 ; __fpl_cmpreturn + 28
        0x00002a44:    e1e0178c    ....    MVN      r1,r12,LSL #15
        0x00002a48:    e1b01081    ....    LSLS     r1,r1,#1
        0x00002a4c:    e12fff1e    ../.    BX       lr
        0x00002a50:    e3a00203    ....    MOV      r0,#0x30000000
        0x00002a54:    e10f2000    . ..    MRS      r2,APSR ; formerly CPSR
        0x00002a58:    e3c2220f    ."..    BIC      r2,r2,#0xf0000000
        0x00002a5c:    e1822000    . ..    ORR      r2,r2,r0
        0x00002a60:    e128f002    ..(.    MSR      APSR_nzcvq,r2 ; formerly CPSR_f
        0x00002a64:    e12fff1e    ../.    BX       lr
        0x00002a68:    e3a00000    ....    MOV      r0,#0
        0x00002a6c:    e12fff1e    ../.    BX       lr
    $d.realdata
    .constdata
    x$fpl$usenofp
    __I$use$fp
    build_date
        0x00002a70:    579f3d4b    K=.W    DCD    1470053707
    .constdata
    build_name
        0x00002a74:    5f797274    try_    DCD    1601794676
        0x00002a78:    79726864    dhry    DCD    2037540964
        0x00002a7c:    6e6f7473    ston    DCD    1852798067
        0x00002a80:    00000065    e...    DCD    101
    .constdata
    hex
        0x00002a84:    33323130    0123    DCD    858927408
        0x00002a88:    37363534    4567    DCD    926299444
        0x00002a8c:    62613938    89ab    DCD    1650538808
        0x00002a90:    66656463    cdef    DCD    1717920867
        0x00002a94:    00000000    ....    DCD    0
    $d
    _alib_align
        0x00002a98:    deaddead    ....    DCD    3735936685

** Section #2 'DTCM' (SHT_PROGBITS) [SHF_ALLOC + SHF_WRITE]
    Size   : 60 bytes (alignment 4)
    Address: 0x00400000

    0x400000:   00 00 00 00 01 00 00 00 00 00 00 00 00 00 00 00    ................
    0x400010:   00 00 00 00 00 00 00 00 00 00 00 00 00 00 00 00    ................
    0x400020:   00 00 00 00 00 00 00 00 00 00 00 00 00 00 00 00    ................
    0x400030:   00 00 00 00 00 00 00 00 00 00 00 00                ............


** Section #3 'DTCM' (SHT_NOBITS) [SHF_ALLOC + SHF_WRITE]
    Size   : 10476 bytes (alignment 4)
    Address: 0x0040003c


** Section #4 'STACK' (SHT_NOBITS) [SHF_ALLOC + SHF_WRITE]
    Size   : 2048 bytes
    Address: 0x0040f800


** Section #5 '.debug_frame' (SHT_PROGBITS)
    Size   : 2576 bytes


** Section #6 '.symtab' (SHT_SYMTAB)
    Size   : 15584 bytes (alignment 4)
    String table #7 '.strtab'
    Last local symbol no. 830

    Symbol table .symtab (973 symbols, 830 local)

      #  Symbol Name                Value      Bind  Sec  Type  Vis  Size
    ========================================================================

      1  $a                         0x00000000   Lc    1   --   De 
      2  $d                         0x00000020   Lc    1   --   De 
      3  $a                         0x00000078   Lc    1   --   De 
      4  $d                         0x00000184   Lc    1   --   De 
      5  $t                         0x00000190   Lc    1   --   De 
      6  $d                         0x000004ce   Lc    1   --   De 
      7  $t                         0x00000908   Lc    1   --   De 
      8  $d                         0x00000aa4   Lc    1   --   De 
      9  $t                         0x00000ccc   Lc    1   --   De 
     10  $d                         0x00000cee   Lc    1   --   De 
     11  $t                         0x00000cf6   Lc    1   --   De 
     12  $d                         0x00000ddc   Lc    1   --   De 
     13  $a                         0x00000de4   Lc    1   --   De 
     14  $t                         0x00000fc4   Lc    1   --   De 
     15  $d                         0x00000fda   Lc    1   --   De 
     16  $t                         0x00000fe0   Lc    1   --   De 
     17  $a                         0x0000101c   Lc    1   --   De 
     18  $t                         0x000010b4   Lc    1   --   De 
     19  $a                         0x000010b8   Lc    1   --   De 
     20  $t                         0x000011a8   Lc    1   --   De 
     21  $d                         0x000011e2   Lc    1   --   De 
     22  $t                         0x000011e8   Lc    1   --   De 
     23  $d                         0x00001210   Lc    1   --   De 
     24  $t                         0x00001214   Lc    1   --   De 
     25  $d                         0x00001226   Lc    1   --   De 
     26  $t                         0x0000122c   Lc    1   --   De 
     27  $d                         0x00001266   Lc    1   --   De 
     28  $t                         0x00001270   Lc    1   --   De 
     29  $d                         0x00001328   Lc    1   --   De 
     30  $t                         0x00001334   Lc    1   --   De 
     31  $d                         0x00001464   Lc    1   --   De 
     32  $t                         0x0000146c   Lc    1   --   De 
     33  $d                         0x00001540   Lc    1   --   De 
     34  $t                         0x0000154c   Lc    1   --   De 
     35  $d                         0x000016a8   Lc    1   --   De 
     36  $t                         0x000016ac   Lc    1   --   De 
     37  $d                         0x000016be   Lc    1   --   De 
     38  $t                         0x000016c4   Lc    1   --   De 
     39  $d                         0x00001770   Lc    1   --   De 
     40  $t                         0x00001790   Lc    1   --   De 
     41  $d                         0x000017f6   Lc    1   --   De 
     42  $a                         0x000017fc   Lc    1   --   De 
     43  $d                         0x00001820   Lc    1   --   De 
     44  $t                         0x00001824   Lc    1   --   De 
     45  $d                         0x00001918   Lc    1   --   De 
     46  $t                         0x00001934   Lc    1   --   De 
     47  $d                         0x0000196e   Lc    1   --   De 
     48  $t                         0x0000197c   Lc    1   --   De 
     49  $d                         0x00001a82   Lc    1   --   De 
     50  $t                         0x00001a94   Lc    1   --   De 
     51  $d                         0x00001ab0   Lc    1   --   De 
     52  $t                         0x00001ab4   Lc    1   --   De 
     53  $d                         0x00001ae2   Lc    1   --   De 
     54  $t                         0x00001ae8   Lc    1   --   De 
     55  $d                         0x00001b72   Lc    1   --   De 
     56  $t                         0x00001b80   Lc    1   --   De 
     57  $d                         0x00001b8c   Lc    1   --   De 
     58  $t                         0x00001b90   Lc    1   --   De 
     59  $d                         0x00001b9c   Lc    1   --   De 
     60  $t                         0x00001ba0   Lc    1   --   De 
     61  $d                         0x00001bc0   Lc    1   --   De 
     62  $t                         0x00001bc4   Lc    1   --   De 
     63  $d                         0x00001bf4   Lc    1   --   De 
     64  $t                         0x00001bf8   Lc    1   --   De 
     65  $d                         0x00001c28   Lc    1   --   De 
     66  $t                         0x00001c38   Lc    1   --   De 
     67  $d                         0x00001c68   Lc    1   --   De 
     68  $t                         0x00001c70   Lc    1   --   De 
     69  $d                         0x00001d44   Lc    1   --   De 
     70  $t                         0x00001d48   Lc    1   --   De 
     71  $a                         0x00001d4c   Lc    1   --   De 
     72  $d                         0x00001df4   Lc    1   --   De 
     73  $a                         0x00001df8   Lc    1   --   De 
     74  $d                         0x00001e04   Lc    1   --   De 
     75  $a                         0x00001e08   Lc    1   --   De 
     76  $d                         0x00001e14   Lc    1   --   De 
     77  $a                         0x00001e18   Lc    1   --   De 
     78  $d                         0x0000214c   Lc    1   --   De 
     79  $a                         0x0000225c   Lc    1   --   De 
     80  $d                         0x0000244c   Lc    1   --   De 
     81  $a                         0x0000245c   Lc    1   --   De 
     82  $d                         0x000025d4   Lc    1   --   De 
     83  $a                         0x000025d8   Lc    1   --   De 
     84  $d                         0x000025e0   Lc    1   --   De 
     85  $a                         0x000025e4   Lc    1   --   De 
     86  $d                         0x000025ec   Lc    1   --   De 
     87  $a                         0x000025f0   Lc    1   --   De 
     88  $d                         0x000026e0   Lc    1   --   De 
     89  $a                         0x00002724   Lc    1   --   De 
     90  $d                         0x000027cc   Lc    1   --   De 
     91  $a                         0x000027d4   Lc    1   --   De 
     92  $d                         0x00002844   Lc    1   --   De 
     93  $a                         0x00002848   Lc    1   --   De 
     94  $d                         0x000028a4   Lc    1   --   De 
     95  $a                         0x000028a8   Lc    1   --   De 
     96  $d.realdata                0x00002a70   Lc    1   --   De 
     97  $d                         0x00002a98   Lc    1   --   De 
     98  $d.realdata                0x00400000   Lc    2   --   De 
     99  $d.realdata                0x0040f800   Lc    4   --   De 
    100  dhry_1.c                   0x00000000   Lc  Abs  File  De 
    101  .text                      0x00000190   Lc    1  Sect  De   0xb3c
    102  .bss                       0x0040003c   Lc    3  Sect  De   0x27d8
    103  .data                      0x00400000   Lc    2  Sect  De   0x2c
    104  dhry_2.c                   0x00000000   Lc  Abs  File  De 
    105  .text                      0x00000ccc   Lc    1  Sect  De   0x118
    106  i.__ARM_common_switch8     0x00001190   Lc    1  Sect  De   0x18
    107  sark_build.c               0x00000000   Lc  Abs  File  De 
    108  .constdata                 0x00002a70   Lc    1  Sect  De   0x4
    109  .constdata                 0x00002a74   Lc    1  Sect  De   0xe
    110  sark_alib.s                0x00000000   Lc  Abs  File  De 
    111  sark_alloc.c               0x00000000   Lc  Abs  File  De 
    112  sark_base.c                0x00000000   Lc  Abs  File  De 
    113  sark_event.c               0x00000000   Lc  Abs  File  De 
    114  sark_hw.c                  0x00000000   Lc  Abs  File  De 
    115  sark_io.c                  0x00000000   Lc  Abs  File  De 
    116  sark_isr.c                 0x00000000   Lc  Abs  File  De 
    117  sark_pkt.c                 0x00000000   Lc  Abs  File  De 
    118  sark_timer.c               0x00000000   Lc  Abs  File  De 
    119  _alib_reset                0x00000000   Lc    1  Sect  De   0x190
    120  undef                      0x00000004   Lc    1  Code  De   0x4
    121  reset_vec                  0x00000020   Lc    1  Data  De   0x4
    122  undef_vec                  0x00000024   Lc    1  Data  De   0x4
    123  svc_vec                    0x00000028   Lc    1  Data  De   0x4
    124  pabt_vec                   0x0000002c   Lc    1  Data  De   0x4
    125  dabt_vec                   0x00000030   Lc    1  Data  De   0x4
    126  aplx_proc                  0x00000034   Lc    1  Data  De   0x4
    127  irq_vec                    0x00000038   Lc    1  Data  De   0x4
    128  fiq_vec                    0x0000003c   Lc    1  Data  De   0x4
    129  svc_stack                  0x00000040   Lc    1  Data  De   0x2
    130  irq_stack                  0x00000042   Lc    1  Data  De   0x2
    131  fiq_stack                  0x00000044   Lc    1  Data  De   0x2
    132  stack_size                 0x00000046   Lc    1  Data  De   0x2
    133  code_top                   0x00000048   Lc    1  Data  De   0x4
    134  heap_base                  0x0000004c   Lc    1  Data  De   0x4
    135  stack_top                  0x00000050   Lc    1  Data  De   0x4
    136  stack_fill                 0x00000054   Lc    1  Data  De   0x4
    137  num_msgs                   0x00000058   Lc    1  Data  De   0x1
    138  sark_slot                  0x00000059   Lc    1  Data  De   0x1
    139  num_events                 0x0000005a   Lc    1  Data  De   0x1
    140  api                        0x0000005b   Lc    1  Data  De   0x1
    141  app_id                     0x0000005c   Lc    1  Data  De   0x1
    142  app_flags                  0x0000005d   Lc    1  Data  De   0x1
    143  __PAD                      0x0000005e   Lc    1  Data  De   0x2
    144  event_vec                  0x00000060   Lc    1  Data  De   0x18
    145  reset_entry                0x00000078   Lc    1  Code  De   0x4
    146  reset_error                0x000000d0   Lc    1  Code  De   0x4
    147  undef_error                0x000000d8   Lc    1  Code  De   0x4
    148  svc_error                  0x000000e0   Lc    1  Code  De   0x4
    149  pabt_error                 0x000000e8   Lc    1  Code  De   0x4
    150  dabt_error                 0x000000f0   Lc    1  Code  De   0x4
    151  irq_error                  0x000000f8   Lc    1  Code  De   0x4
    152  fiq_error                  0x00000100   Lc    1  Code  De   0x4
    153  exc_error                  0x00000114   Lc    1  Code  De   0x4
    154  cc_error                   0x00000138   Lc    1  Code  De   0x4
    155  alib_init_mode             0x0000104c   Lc    1  Sect  De   0x18
    156  alib_int_disable           0x00001064   Lc    1  Sect  De   0x10
    157  alib_int_restore           0x00001074   Lc    1  Sect  De   0x8
    158  alib_wfi                   0x00001100   Lc    1  Sect  De   0x8
    159  alib_lock                  0x0000107c   Lc    1  Sect  De   0x38
    160  lg1                        0x00001090   Lc    1  Code  De   0x4
    161  alib_strcpy                0x000010ec   Lc    1  Sect  De   0x14
    162  alib_word_set              0x0000116c   Lc    1  Sect  De   0x24
    163  ws1                        0x00001170   Lc    1  Code  De   0x4
    164  alib_word_cpy              0x00001108   Lc    1  Sect  De   0x64
    165  wc1                        0x00001130   Lc    1  Code  De   0x4
    166  wc2                        0x00001148   Lc    1  Code  De   0x4
    167  alib_div10                 0x0000101c   Lc    1  Sect  De   0x30
    168  alib_sark_int              0x000010b8   Lc    1  Sect  De   0x34
    169  alib_rts                   0x000010b4   Lc    1  Sect  De   0x4
    170  alib_aplx                  0x00000fc4   Lc    1  Sect  De   0x58
    171  aplx_l0                    0x00000fcd   Lc    1  Code  De   0x2
    172  aplx_buffer                0x00000fdc   Lc    1  Data  De   0x4
    173  aplx_loader                0x00000fe1   Lc    1  Code  De   0x2
    174  aplx_rcopy                 0x00000ff5   Lc    1  Code  De   0x2
    175  aplx_copy                  0x00000ff9   Lc    1  Code  De   0x2
    176  aplx_fill                  0x00001007   Lc    1  Code  De   0x2
    177  aplx_l1                    0x0000100d   Lc    1  Code  De   0x2
    178  aplx_exec                  0x00001017   Lc    1  Code  De   0x2
    179  _alib_align                0x00002a98   Lc    1  Sect  De   0x4
    180  i.rte_handler              0x000016a0   Lc    1  Sect  De   0xc
    181  i.sark_block_init          0x000016c4   Lc    1  Sect  De   0x12
    182  i.sark_cmd_fill            0x000016d6   Lc    1  Sect  De   0xe
    183  i.sark_cmd_read            0x000016e4   Lc    1  Sect  De   0x5e
    184  i.sark_cmd_ver             0x00001744   Lc    1  Sect  De   0x4c
    185  i.sark_cmd_write           0x00001790   Lc    1  Sect  De   0x5c
    186  i.sark_cpu_state           0x000017ec   Lc    1  Sect  De   0x10
    187  i.sark_init                0x0000183c   Lc    1  Sect  De   0xf8
    188  i.sark_int                 0x00001934   Lc    1  Sect  De   0x160
    189  i.sark_msg_free            0x00001a94   Lc    1  Sect  De   0x20
    190  i.sark_msg_get             0x00001ab4   Lc    1  Sect  De   0x34
    191  i.sark_msg_send            0x00001ae8   Lc    1  Sect  De   0x98
    192  i.sark_post_main           0x00001b80   Lc    1  Sect  De   0x10
    193  i.sark_pre_main            0x00001b90   Lc    1  Sect  De   0x10
    194  i.sark_shmsg_free          0x00001ba0   Lc    1  Sect  De   0x24
    195  i.sark_shmsg_get           0x00001bc4   Lc    1  Sect  De   0x34
    196  i.sark_wait                0x00001c70   Lc    1  Sect  De   0x12
    197  i.schedule_sysmode         0x00001d48   Lc    1  Sect  De   0x2
    198  .bss                       0x00402814   Lc    3  Sect  De   0x7c
    199  i.event_alloc              0x000011a8   Lc    1  Sect  De   0x40
    200  i.event_pause              0x000011e8   Lc    1  Sect  De   0x2c
    201  i.event_stop               0x00001214   Lc    1  Sect  De   0x18
    202  .bss                       0x00402890   Lc    3  Sect  De   0x98
    203  i.sark_vic_init            0x00001bf8   Lc    1  Sect  De   0x40
    204  i.sark_vic_set             0x00001c38   Lc    1  Sect  De   0x38
    205  i.sark_fiq_han             0x000017fc   Lc    1  Sect  De   0x28
    206  i.sark_alloc               0x000016ac   Lc    1  Sect  De   0x18
    207  i.sark_heap_init           0x00001824   Lc    1  Sect  De   0x18
    208  i.sark_xalloc              0x00001c84   Lc    1  Sect  De   0xc4
    209  i.io_buf_init              0x0000122c   Lc    1  Sect  De   0x44
    210  io_buf_init                0x0000122d   Lc    1  Code  De   0x3a
    211  i.io_printf                0x00001270   Lc    1  Sect  De   0x1fc
    212  i.io_put_char              0x0000146c   Lc    1  Sect  De   0xe0
    213  i.io_put_fixed             0x0000154c   Lc    1  Sect  De   0xb8
    214  io_put_fixed               0x0000154d   Lc    1  Code  De   0xb8
    215  i.io_put_int               0x00001604   Lc    1  Sect  De   0x64
    216  io_put_int                 0x00001605   Lc    1  Code  De   0x64
    217  i.io_put_sfixed            0x00001668   Lc    1  Sect  De   0x20
    218  io_put_sfixed              0x00001669   Lc    1  Code  De   0x20
    219  i.io_put_ufixed            0x00001688   Lc    1  Sect  De   0x18
    220  io_put_ufixed              0x00001689   Lc    1  Code  De   0x18
    221  .constdata                 0x00002a84   Lc    1  Sect  De   0x11
    222  hex                        0x00002a84   Lc    1  Data  De   0x11
    223  .data                      0x0040002c   Lc    2  Sect  De   0x10
    224  sp_ptr                     0x0040002c   Lc    2  Data  De   0x4
    225  buf_ptr                    0x00400030   Lc    2  Data  De   0x4
    226  io_msg                     0x00400034   Lc    2  Data  De   0x4
    227  io_buf                     0x00400038   Lc    2  Data  De   0x4
    228  CC_TCR                     0x00000000   Lc  Abs   --   De 
    229  CMD_VER                    0x00000000   Lc  Abs   --   De 
    230  ETH_CONTROL                0x00000000   Lc  Abs   --   De 
    231  ITCM_BASE                  0x00000000   Lc  Abs   --   De 
    232  MC_STAT                    0x00000000   Lc  Abs   --   De 
    233  PKT_MC                     0x00000000   Lc  Abs   --   De 
    234  RST_POR                    0x00000000   Lc  Abs   --   De 
    235  RTR_CONTROL                0x00000000   Lc  Abs   --   De 
    236  SARK_VIRT_CPU              0x00000000   Lc  Abs   --   De 
    237  SC_CHIP_ID                 0x00000000   Lc  Abs   --   De 
    238  SRF_NONE                   0x00000000   Lc  Abs   --   De 
    239  T1_LOAD                    0x00000000   Lc  Abs   --   De 
    240  TAG_HOST                   0x00000000   Lc  Abs   --   De 
    241  TC_LOAD                    0x00000000   Lc  Abs   --   De 
    242  TYPE_BYTE                  0x00000000   Lc  Abs   --   De 
    243  VIC_IRQST                  0x00000000   Lc  Abs   --   De 
    244  WDOG_INT                   0x00000000   Lc  Abs   --   De 
    245  WD_LOAD                    0x00000000   Lc  Abs   --   De 
    246  ALLOC_LOCK                 0x00000001   Lc  Abs   --   De 
    247  APLX_ACOPY                 0x00000001   Lc  Abs   --   De 
    248  A_RTE_RESET                0x00000001   Lc  Abs   --   De 
    249  BUF_WRITE                  0x00000001   Lc  Abs   --   De 
    250  CMD_RUN                    0x00000001   Lc  Abs   --   De 
    251  ETH_TX_CLR                 0x00000001   Lc  Abs   --   De 
    252  LED_0                      0x00000001   Lc  Abs   --   De 
    253  PHY_CTRL_NRST              0x00000001   Lc  Abs   --   De 
    254  RST_WDT                    0x00000001   Lc  Abs   --   De 
    255  RTR_ALLOC_FIRST            0x00000001   Lc  Abs   --   De 
    256  SARK_EVENT                 0x00000001   Lc  Abs   --   De 
    257  SOFTWARE_INT               0x00000001   Lc  Abs   --   De 
    258  SRF_ETH                    0x00000001   Lc  Abs   --   De 
    259  TYPE_HALF                  0x00000001   Lc  Abs   --   De 
    260  WD_INT_B                   0x00000001   Lc  Abs   --   De 
    261  ALLOC_ID                   0x00000002   Lc  Abs   --   De 
    262  APLX_RCOPY                 0x00000002   Lc  Abs   --   De 
    263  A_RTE_UNDEF                0x00000002   Lc  Abs   --   De 
    264  A_STATE_RTE                0x00000002   Lc  Abs   --   De 
    265  CMD_READ                   0x00000002   Lc  Abs   --   De 
    266  COMM_RX_INT                0x00000002   Lc  Abs   --   De 
    267  PHY_CTRL_DIN               0x00000002   Lc  Abs   --   De 
    268  RST_USER                   0x00000002   Lc  Abs   --   De 
    269  SRF_PHY_WAIT               0x00000002   Lc  Abs   --   De 
    270  TYPE_WORD                  0x00000002   Lc  Abs   --   De 
    271  WD_RST_B                   0x00000002   Lc  Abs   --   De 
    272  APLX_FILL                  0x00000003   Lc  Abs   --   De 
    273  A_RTE_SVC                  0x00000003   Lc  Abs   --   De 
    274  CMD_WRITE                  0x00000003   Lc  Abs   --   De 
    275  COMM_TX_INT                0x00000003   Lc  Abs   --   De 
    276  P2P_BPE                    0x00000003   Lc  Abs   --   De 
    277  P2P_LOG_EPW                0x00000003   Lc  Abs   --   De 
    278  RST_SW                     0x00000003   Lc  Abs   --   De 
    279  APLX_EXEC                  0x00000004   Lc  Abs   --   De 
    280  A_RTE_PABT                 0x00000004   Lc  Abs   --   De 
    281  CC_TXDATA                  0x00000004   Lc  Abs   --   De 
    282  CMD_APLX                   0x00000004   Lc  Abs   --   De 
    283  DMA_ADRS                   0x00000004   Lc  Abs   --   De 
    284  ETH_STATUS                 0x00000004   Lc  Abs   --   De 
    285  MC_CMD                     0x00000004   Lc  Abs   --   De 
    286  NUM_SDP_MSGS               0x00000004   Lc  Abs   --   De 
    287  PHY_CTRL_DOUT              0x00000004   Lc  Abs   --   De 
    288  RST_WDI                    0x00000004   Lc  Abs   --   De 
    289  RTR_STATUS                 0x00000004   Lc  Abs   --   De 
    290  SC_CPU_DIS                 0x00000004   Lc  Abs   --   De 
    291  SERIAL_SO                  0x00000004   Lc  Abs   --   De 
    292  SRF_PHY_RST                0x00000004   Lc  Abs   --   De 
    293  T1_COUNT                   0x00000004   Lc  Abs   --   De 
    294  TC_COUNT                   0x00000004   Lc  Abs   --   De 
    295  TIMER1_INT                 0x00000004   Lc  Abs   --   De 
    296  VIC_FIQST                  0x00000004   Lc  Abs   --   De 
    297  WD_COUNT                   0x00000004   Lc  Abs   --   De 
    298  A_LOCK_SEMA                0x00000005   Lc  Abs   --   De 
    299  A_RTE_DABT                 0x00000005   Lc  Abs   --   De 
    300  CMD_FILL                   0x00000005   Lc  Abs   --   De 
    301  PORT_SHIFT                 0x00000005   Lc  Abs   --   De 
    302  TIMER2_INT                 0x00000005   Lc  Abs   --   De 
    303  A_RTE_IRQ                  0x00000006   Lc  Abs   --   De 
    304  CC_RDY_INT                 0x00000006   Lc  Abs   --   De 
    305  EVENT_COUNT                0x00000006   Lc  Abs   --   De 
    306  NUM_LINKS                  0x00000006   Lc  Abs   --   De 
    307  A_RTE_FIQ                  0x00000007   Lc  Abs   --   De 
    308  CC_RPE_INT                 0x00000007   Lc  Abs   --   De 
    309  P2P_BMASK                  0x00000007   Lc  Abs   --   De 
    310  P2P_EMASK                  0x00000007   Lc  Abs   --   De 
    311  A_RTE_VIC                  0x00000008   Lc  Abs   --   De 
    312  CC_RFE_INT                 0x00000008   Lc  Abs   --   De 
    313  CC_TXKEY                   0x00000008   Lc  Abs   --   De 
    314  DMA_ADRT                   0x00000008   Lc  Abs   --   De 
    315  ETH_TX_LEN                 0x00000008   Lc  Abs   --   De 
    316  MC_DIRC                    0x00000008   Lc  Abs   --   De 
    317  P2P_EPW                    0x00000008   Lc  Abs   --   De 
    318  PHY_CTRL_OE                0x00000008   Lc  Abs   --   De 
    319  RTR_EHDR                   0x00000008   Lc  Abs   --   De 
    320  SARK_RANDOM                0x00000008   Lc  Abs   --   De 
    321  SC_SET_IRQ                 0x00000008   Lc  Abs   --   De 
    322  SERIAL_SI                  0x00000008   Lc  Abs   --   De 
    323  SRF_PHY_INIT               0x00000008   Lc  Abs   --   De 
    324  T1_CONTROL                 0x00000008   Lc  Abs   --   De 
    325  TC_CONTROL                 0x00000008   Lc  Abs   --   De 
    326  VIC_RAW                    0x00000008   Lc  Abs   --   De 
    327  WD_CTRL                    0x00000008   Lc  Abs   --   De 
    328  CC_TFL_INT                 0x00000009   Lc  Abs   --   De 
    329  CC_TOV_INT                 0x0000000a   Lc  Abs   --   De 
    330  CLK_XTAL_MHZ               0x0000000a   Lc  Abs   --   De 
    331  CC_TMT_INT                 0x0000000b   Lc  Abs   --   De 
    332  CC_RSR                     0x0000000c   Lc  Abs   --   De 
    333  DMA_DESC                   0x0000000c   Lc  Abs   --   De 
    334  DMA_DONE_INT               0x0000000c   Lc  Abs   --   De 
    335  ETH_TX_CMD                 0x0000000c   Lc  Abs   --   De 
    336  MC_MCFG                    0x0000000c   Lc  Abs   --   De 
    337  RTR_EKEY                   0x0000000c   Lc  Abs   --   De 
    338  SC_CLR_IRQ                 0x0000000c   Lc  Abs   --   De 
    339  T1_INT_CLR                 0x0000000c   Lc  Abs   --   De 
    340  TC_INT_CLR                 0x0000000c   Lc  Abs   --   De 
    341  VIC_SELECT                 0x0000000c   Lc  Abs   --   De 
    342  WD_INTCLR                  0x0000000c   Lc  Abs   --   De 
    343  DMA_ERR_INT                0x0000000d   Lc  Abs   --   De 
    344  DMA_TO_INT                 0x0000000e   Lc  Abs   --   De 
    345  RTR_DIAG_INT               0x0000000f   Lc  Abs   --   De 
    346  SARK_SLOT                  0x0000000f   Lc  Abs   --   De 
    347  APLX_ENTRY_SIZE            0x00000010   Lc  Abs   --   De 
    348  CC_RXDATA                  0x00000010   Lc  Abs   --   De 
    349  CMD_REMAP                  0x00000010   Lc  Abs   --   De 
    350  DMA_CTRL                   0x00000010   Lc  Abs   --   De 
    351  ETH_RX_CLR                 0x00000010   Lc  Abs   --   De 
    352  ETH_RX_CMD                 0x00000010   Lc  Abs   --   De 
    353  INIT_EVENTS                0x00000010   Lc  Abs   --   De 
    354  MC_REFP                    0x00000010   Lc  Abs   --   De 
    355  MODE_USER                  0x00000010   Lc  Abs   --   De 
    356  PHY_CTRL_CLK               0x00000010   Lc  Abs   --   De 
    357  RTR_DUMP_INT               0x00000010   Lc  Abs   --   De 
    358  RTR_EDAT                   0x00000010   Lc  Abs   --   De 
    359  SC_CPU_OK                  0x00000010   Lc  Abs   --   De 
    360  SC_SET_OK                  0x00000010   Lc  Abs   --   De 
    361  SERIAL_CLK                 0x00000010   Lc  Abs   --   De 
    362  T1_RAW_INT                 0x00000010   Lc  Abs   --   De 
    363  TC_RAW_INT                 0x00000010   Lc  Abs   --   De 
    364  VIC_ENABLE                 0x00000010   Lc  Abs   --   De 
    365  WD_RAWINT                  0x00000010   Lc  Abs   --   De 
    366  CMD_LINK_READ              0x00000011   Lc  Abs   --   De 
    367  MODE_FIQ                   0x00000011   Lc  Abs   --   De 
    368  RTR_ERR_INT                0x00000011   Lc  Abs   --   De 
    369  CMD_LINK_WRITE             0x00000012   Lc  Abs   --   De 
    370  CPU_INT                    0x00000012   Lc  Abs   --   De 
    371  MODE_IRQ                   0x00000012   Lc  Abs   --   De 
    372  NUM_CPUS                   0x00000012   Lc  Abs   --   De 
    373  CMD_AR                     0x00000013   Lc  Abs   --   De 
    374  ETH_TX_INT                 0x00000013   Lc  Abs   --   De 
    375  MODE_SVC                   0x00000013   Lc  Abs   --   De 
    376  CC_RXKEY                   0x00000014   Lc  Abs   --   De 
    377  CMD_NNP                    0x00000014   Lc  Abs   --   De 
    378  DMA_STAT                   0x00000014   Lc  Abs   --   De 
    379  ETH_MAC_LO                 0x00000014   Lc  Abs   --   De 
    380  ETH_RX_INT                 0x00000014   Lc  Abs   --   De 
    381  MC_CASL                    0x00000014   Lc  Abs   --   De 
    382  RTR_ESTAT                  0x00000014   Lc  Abs   --   De 
    383  SC_CLR_OK                  0x00000014   Lc  Abs   --   De 
    384  T1_MASK_INT                0x00000014   Lc  Abs   --   De 
    385  TC_MASK_INT                0x00000014   Lc  Abs   --   De 
    386  VIC_DISABLE                0x00000014   Lc  Abs   --   De 
    387  WD_MSKINT                  0x00000014   Lc  Abs   --   De 
    388  CMD_P2PC                   0x00000015   Lc  Abs   --   De 
    389  ETH_PHY_INT                0x00000015   Lc  Abs   --   De 
    390  CMD_SIG                    0x00000016   Lc  Abs   --   De 
    391  SLOW_CLK_INT               0x00000016   Lc  Abs   --   De 
    392  CC_TNF_INT                 0x00000017   Lc  Abs   --   De 
    393  CMD_FFD                    0x00000017   Lc  Abs   --   De 
    394  MODE_ABT                   0x00000017   Lc  Abs   --   De 
    395  CC_MC_INT                  0x00000018   Lc  Abs   --   De 
    396  CC_SAR                     0x00000018   Lc  Abs   --   De 
    397  CMD_AS                     0x00000018   Lc  Abs   --   De 
    398  DMA_GCTL                   0x00000018   Lc  Abs   --   De 
    399  ETH_MAC_HI                 0x00000018   Lc  Abs   --   De 
    400  MC_DQSS                    0x00000018   Lc  Abs   --   De 
    401  MC_RAM_WIDTH               0x00000018   Lc  Abs   --   De 
    402  RTR_DHDR                   0x00000018   Lc  Abs   --   De 
    403  SC_SOFT_RST_L              0x00000018   Lc  Abs   --   De 
    404  T1_BG_LOAD                 0x00000018   Lc  Abs   --   De 
    405  TC_BG_LOAD                 0x00000018   Lc  Abs   --   De 
    406  VIC_SOFT_SET               0x00000018   Lc  Abs   --   De 
    407  CC_P2P_INT                 0x00000019   Lc  Abs   --   De 
    408  CMD_LED                    0x00000019   Lc  Abs   --   De 
    409  CC_NN_INT                  0x0000001a   Lc  Abs   --   De 
    410  CMD_IPTAG                  0x0000001a   Lc  Abs   --   De 
    411  CC_FR_INT                  0x0000001b   Lc  Abs   --   De 
    412  CMD_SROM                   0x0000001b   Lc  Abs   --   De 
    413  MODE_UND                   0x0000001b   Lc  Abs   --   De 
    414  CC_TEST                    0x0000001c   Lc  Abs   --   De 
    415  CMD_ALLOC                  0x0000001c   Lc  Abs   --   De 
    416  DMA_CRCC                   0x0000001c   Lc  Abs   --   De 
    417  ETH_PHY_CTRL               0x0000001c   Lc  Abs   --   De 
    418  INT0_INT                   0x0000001c   Lc  Abs   --   De 
    419  MC_MRD                     0x0000001c   Lc  Abs   --   De 
    420  RTR_DKEY                   0x0000001c   Lc  Abs   --   De 
    421  SARK_MSG_INT               0x0000001c   Lc  Abs   --   De 
    422  SC_HARD_RST_L              0x0000001c   Lc  Abs   --   De 
    423  VIC_SOFT_CLR               0x0000001c   Lc  Abs   --   De 
    424  CMD_RTR                    0x0000001d   Lc  Abs   --   De 
    425  INT1_INT                   0x0000001d   Lc  Abs   --   De 
    426  SARK_SIG_INT               0x0000001d   Lc  Abs   --   De 
    427  GPIO8_INT                  0x0000001e   Lc  Abs   --   De 
    428  CPU_MASK                   0x0000001f   Lc  Abs   --   De 
    429  GPIO9_INT                  0x0000001f   Lc  Abs   --   De 
    430  MODE_SYS                   0x0000001f   Lc  Abs   --   De 
    431  DMA_CRCR                   0x00000020   Lc  Abs   --   De 
    432  ETH_INT_CLR                0x00000020   Lc  Abs   --   De 
    433  MC_CAM_WIDTH               0x00000020   Lc  Abs   --   De 
    434  MC_RAS                     0x00000020   Lc  Abs   --   De 
    435  RTR_DDAT                   0x00000020   Lc  Abs   --   De 
    436  SC_SUBS_RST_L              0x00000020   Lc  Abs   --   De 
    437  SERIAL_NCS                 0x00000020   Lc  Abs   --   De 
    438  SV_SSIZE                   0x00000020   Lc  Abs   --   De 
    439  SV_VSIZE                   0x00000020   Lc  Abs   --   De 
    440  T2_LOAD                    0x00000020   Lc  Abs   --   De 
    441  THUMB_BIT                  0x00000020   Lc  Abs   --   De 
    442  TIMER_OFFSET               0x00000020   Lc  Abs   --   De 
    443  VIC_PROTECT                0x00000020   Lc  Abs   --   De 
    444  DMA_TMTV                   0x00000024   Lc  Abs   --   De 
    445  ETH_RX_BUF_RP              0x00000024   Lc  Abs   --   De 
    446  MC_RC                      0x00000024   Lc  Abs   --   De 
    447  RTR_DLINK                  0x00000024   Lc  Abs   --   De 
    448  SC_SOFT_RST_P              0x00000024   Lc  Abs   --   De 
    449  T2_COUNT                   0x00000024   Lc  Abs   --   De 
    450  DMA_SCTL                   0x00000028   Lc  Abs   --   De 
    451  MC_RCD                     0x00000028   Lc  Abs   --   De 
    452  RTR_DSTAT                  0x00000028   Lc  Abs   --   De 
    453  SC_HARD_RST_P              0x00000028   Lc  Abs   --   De 
    454  T2_CONTROL                 0x00000028   Lc  Abs   --   De 
    455  ETH_RX_DESC_RP             0x0000002c   Lc  Abs   --   De 
    456  MC_RFC                     0x0000002c   Lc  Abs   --   De 
    457  RTR_DGEN                   0x0000002c   Lc  Abs   --   De 
    458  SC_SUBS_RST_P              0x0000002c   Lc  Abs   --   De 
    459  T2_INT_CLR                 0x0000002c   Lc  Abs   --   De 
    460  VCPU_RT_CODE               0x0000002c   Lc  Abs   --   De 
    461  VCPU_CPU_STATE             0x0000002e   Lc  Abs   --   De 
    462  VCPU_APP_ID                0x0000002f   Lc  Abs   --   De 
    463  MC_RP                      0x00000030   Lc  Abs   --   De 
    464  SARK_CPU_CLK               0x00000030   Lc  Abs   --   De 
    465  SC_RST_CODE                0x00000030   Lc  Abs   --   De 
    466  T2_RAW_INT                 0x00000030   Lc  Abs   --   De 
    467  VIC_VADDR                  0x00000030   Lc  Abs   --   De 
    468  MC_RRD                     0x00000034   Lc  Abs   --   De 
    469  SC_MON_ID                  0x00000034   Lc  Abs   --   De 
    470  T2_MASK_INT                0x00000034   Lc  Abs   --   De 
    471  VIC_DEFADDR                0x00000034   Lc  Abs   --   De 
    472  MC_WR                      0x00000038   Lc  Abs   --   De 
    473  SC_MISC_CTRL               0x00000038   Lc  Abs   --   De 
    474  SERIAL_OE                  0x00000038   Lc  Abs   --   De 
    475  T2_BG_LOAD                 0x00000038   Lc  Abs   --   De 
    476  GPIO_RES                   0x0000003c   Lc  Abs   --   De 
    477  MC_WTR                     0x0000003c   Lc  Abs   --   De 
    478  APLX_BUF_SIZE              0x00000040   Lc  Abs   --   De 
    479  CMD_TUBE                   0x00000040   Lc  Abs   --   De 
    480  DMA_STAT0                  0x00000040   Lc  Abs   --   De 
    481  GPIO_PORT                  0x00000040   Lc  Abs   --   De 
    482  IMASK_FIQ                  0x00000040   Lc  Abs   --   De 
    483  MC_XP                      0x00000040   Lc  Abs   --   De 
    484  SV_RSIZE                   0x00000040   Lc  Abs   --   De 
    485  DMA_STAT1                  0x00000044   Lc  Abs   --   De 
    486  GPIO_DIR                   0x00000044   Lc  Abs   --   De 
    487  MC_XSR                     0x00000044   Lc  Abs   --   De 
    488  DMA_STAT2                  0x00000048   Lc  Abs   --   De 
    489  GPIO_READ                  0x00000048   Lc  Abs   --   De 
    490  GPIO_SET                   0x00000048   Lc  Abs   --   De 
    491  MC_ESR                     0x00000048   Lc  Abs   --   De 
    492  DMA_STAT3                  0x0000004c   Lc  Abs   --   De 
    493  GPIO_CLR                   0x0000004c   Lc  Abs   --   De 
    494  MC_MCFG2                   0x0000004c   Lc  Abs   --   De 
    495  DMA_STAT4                  0x00000050   Lc  Abs   --   De 
    496  MC_MCFG3                   0x00000050   Lc  Abs   --   De 
    497  PLL_LOCK_TIME              0x00000050   Lc  Abs   --   De 
    498  SC_PLL1                    0x00000050   Lc  Abs   --   De 
    499  DMA_STAT5                  0x00000054   Lc  Abs   --   De 
    500  SC_PLL2                    0x00000054   Lc  Abs   --   De 
    501  DMA_STAT6                  0x00000058   Lc  Abs   --   De 
    502  SC_FLAG                    0x00000058   Lc  Abs   --   De 
    503  SC_SETFLAG                 0x00000058   Lc  Abs   --   De 
    504  DMA_STAT7                  0x0000005c   Lc  Abs   --   De 
    505  SC_CLRFLAG                 0x0000005c   Lc  Abs   --   De 
    506  SC_CLKMUX                  0x00000060   Lc  Abs   --   De 
    507  SV_USIZE                   0x00000060   Lc  Abs   --   De 
    508  SC_SLEEP                   0x00000064   Lc  Abs   --   De 
    509  SC_TS0                     0x00000068   Lc  Abs   --   De 
    510  SC_TS1                     0x0000006c   Lc  Abs   --   De 
    511  SC_TS2                     0x00000070   Lc  Abs   --   De 
    512  IMASK_IRQ                  0x00000080   Lc  Abs   --   De 
    513  RC_OK                      0x00000080   Lc  Abs   --   De 
    514  SC_ARB0                    0x00000080   Lc  Abs   --   De 
    515  SV_ISIZE                   0x00000080   Lc  Abs   --   De 
    516  VCPU_SIZE                  0x00000080   Lc  Abs   --   De 
    517  RC_LEN                     0x00000081   Lc  Abs   --   De 
    518  RC_SUM                     0x00000082   Lc  Abs   --   De 
    519  RC_CMD                     0x00000083   Lc  Abs   --   De 
    520  RC_ARG                     0x00000084   Lc  Abs   --   De 
    521  RTR_FR                     0x00000084   Lc  Abs   --   De 
    522  RC_PORT                    0x00000085   Lc  Abs   --   De 
    523  RC_TIMEOUT                 0x00000086   Lc  Abs   --   De 
    524  RC_ROUTE                   0x00000087   Lc  Abs   --   De 
    525  RC_CPU                     0x00000088   Lc  Abs   --   De 
    526  RC_DEAD                    0x00000089   Lc  Abs   --   De 
    527  RC_BUF                     0x0000008a   Lc  Abs   --   De 
    528  RC_P2P_NOREPLY             0x0000008b   Lc  Abs   --   De 
    529  RC_P2P_REJECT              0x0000008c   Lc  Abs   --   De 
    530  RC_P2P_BUSY                0x0000008d   Lc  Abs   --   De 
    531  RC_P2P_TIMEOUT             0x0000008e   Lc  Abs   --   De 
    532  RC_PKT_TX                  0x0000008f   Lc  Abs   --   De 
    533  IMASK_ALL                  0x000000c0   Lc  Abs   --   De 
    534  PORT_MASK                  0x000000e0   Lc  Abs   --   De 
    535  SRF_HW_VER                 0x000000f0   Lc  Abs   --   De 
    536  APLX_END                   0x000000ff   Lc  Abs   --   De 
    537  PORT_ETH                   0x000000ff   Lc  Abs   --   De 
    538  TAG_NONE                   0x000000ff   Lc  Abs   --   De 
    539  FIQ_STACK                  0x00000100   Lc  Abs   --   De 
    540  IRQ_STACK                  0x00000100   Lc  Abs   --   De 
    541  MC_QOS0                    0x00000100   Lc  Abs   --   De 
    542  SC_TAS0                    0x00000100   Lc  Abs   --   De 
    543  SDP_BUF_SIZE               0x00000100   Lc  Abs   --   De 
    544  SYS_BOOT                   0x00000100   Lc  Abs   --   De 
    545  VIC_ADDR                   0x00000100   Lc  Abs   --   De 
    546  VIC_ADDR0                  0x00000100   Lc  Abs   --   De 
    547  DMA_AD2S                   0x00000104   Lc  Abs   --   De 
    548  MC_QOS1                    0x00000104   Lc  Abs   --   De 
    549  VIC_ADDR1                  0x00000104   Lc  Abs   --   De 
    550  DMA_AD2T                   0x00000108   Lc  Abs   --   De 
    551  MC_QOS2                    0x00000108   Lc  Abs   --   De 
    552  VIC_ADDR2                  0x00000108   Lc  Abs   --   De 
    553  DMA_DES2                   0x0000010c   Lc  Abs   --   De 
    554  MC_QOS3                    0x0000010c   Lc  Abs   --   De 
    555  VIC_ADDR3                  0x0000010c   Lc  Abs   --   De 
    556  MC_QOS4                    0x00000110   Lc  Abs   --   De 
    557  VIC_ADDR4                  0x00000110   Lc  Abs   --   De 
    558  MC_QOS5                    0x00000114   Lc  Abs   --   De 
    559  VIC_ADDR5                  0x00000114   Lc  Abs   --   De 
    560  MC_QOS6                    0x00000118   Lc  Abs   --   De 
    561  VIC_ADDR6                  0x00000118   Lc  Abs   --   De 
    562  MC_QOS7                    0x0000011c   Lc  Abs   --   De 
    563  VIC_ADDR7                  0x0000011c   Lc  Abs   --   De 
    564  MC_QOS8                    0x00000120   Lc  Abs   --   De 
    565  VIC_ADDR8                  0x00000120   Lc  Abs   --   De 
    566  MC_QOS9                    0x00000124   Lc  Abs   --   De 
    567  VIC_ADDR9                  0x00000124   Lc  Abs   --   De 
    568  MC_QOS10                   0x00000128   Lc  Abs   --   De 
    569  VIC_ADDR10                 0x00000128   Lc  Abs   --   De 
    570  MC_QOS11                   0x0000012c   Lc  Abs   --   De 
    571  VIC_ADDR11                 0x0000012c   Lc  Abs   --   De 
    572  MC_QOS12                   0x00000130   Lc  Abs   --   De 
    573  VIC_ADDR12                 0x00000130   Lc  Abs   --   De 
    574  MC_QOS13                   0x00000134   Lc  Abs   --   De 
    575  VIC_ADDR13                 0x00000134   Lc  Abs   --   De 
    576  MC_QOS14                   0x00000138   Lc  Abs   --   De 
    577  VIC_ADDR14                 0x00000138   Lc  Abs   --   De 
    578  MC_QOS15                   0x0000013c   Lc  Abs   --   De 
    579  VIC_ADDR15                 0x0000013c   Lc  Abs   --   De 
    580  DMA_CRCT                   0x00000180   Lc  Abs   --   De 
    581  SC_TAC0                    0x00000180   Lc  Abs   --   De 
    582  SVC_STACK                  0x00000180   Lc  Abs   --   De 
    583  MC_CCFG0                   0x00000200   Lc  Abs   --   De 
    584  RTR_DGF0                   0x00000200   Lc  Abs   --   De 
    585  SC_LINK_DIS                0x00000200   Lc  Abs   --   De 
    586  VIC_CNTL                   0x00000200   Lc  Abs   --   De 
    587  VIC_CNTL0                  0x00000200   Lc  Abs   --   De 
    588  MC_CCFG1                   0x00000204   Lc  Abs   --   De 
    589  RTR_DGF1                   0x00000204   Lc  Abs   --   De 
    590  VIC_CNTL1                  0x00000204   Lc  Abs   --   De 
    591  MC_CCFG2                   0x00000208   Lc  Abs   --   De 
    592  RTR_DGF2                   0x00000208   Lc  Abs   --   De 
    593  VIC_CNTL2                  0x00000208   Lc  Abs   --   De 
    594  MC_CCFG3                   0x0000020c   Lc  Abs   --   De 
    595  RTR_DGF3                   0x0000020c   Lc  Abs   --   De 
    596  VIC_CNTL3                  0x0000020c   Lc  Abs   --   De 
    597  RTR_DGF4                   0x00000210   Lc  Abs   --   De 
    598  VIC_CNTL4                  0x00000210   Lc  Abs   --   De 
    599  RTR_DGF5                   0x00000214   Lc  Abs   --   De 
    600  VIC_CNTL5                  0x00000214   Lc  Abs   --   De 
    601  RTR_DGF6                   0x00000218   Lc  Abs   --   De 
    602  VIC_CNTL6                  0x00000218   Lc  Abs   --   De 
    603  RTR_DGF7                   0x0000021c   Lc  Abs   --   De 
    604  VIC_CNTL7                  0x0000021c   Lc  Abs   --   De 
    605  RTR_DGF8                   0x00000220   Lc  Abs   --   De 
    606  VIC_CNTL8                  0x00000220   Lc  Abs   --   De 
    607  RTR_DGF9                   0x00000224   Lc  Abs   --   De 
    608  VIC_CNTL9                  0x00000224   Lc  Abs   --   De 
    609  RTR_DGF10                  0x00000228   Lc  Abs   --   De 
    610  VIC_CNTL10                 0x00000228   Lc  Abs   --   De 
    611  RTR_DGF11                  0x0000022c   Lc  Abs   --   De 
    612  VIC_CNTL11                 0x0000022c   Lc  Abs   --   De 
    613  RTR_DGF12                  0x00000230   Lc  Abs   --   De 
    614  VIC_CNTL12                 0x00000230   Lc  Abs   --   De 
    615  RTR_DGF13                  0x00000234   Lc  Abs   --   De 
    616  VIC_CNTL13                 0x00000234   Lc  Abs   --   De 
    617  RTR_DGF14                  0x00000238   Lc  Abs   --   De 
    618  VIC_CNTL14                 0x00000238   Lc  Abs   --   De 
    619  RTR_DGF15                  0x0000023c   Lc  Abs   --   De 
    620  VIC_CNTL15                 0x0000023c   Lc  Abs   --   De 
    621  DLL_STATUS                 0x00000300   Lc  Abs   --   De 
    622  RTR_DGC0                   0x00000300   Lc  Abs   --   De 
    623  DLL_CONFIG0                0x00000304   Lc  Abs   --   De 
    624  RTR_DGC1                   0x00000304   Lc  Abs   --   De 
    625  DLL_CONFIG1                0x00000308   Lc  Abs   --   De 
    626  RTR_DGC2                   0x00000308   Lc  Abs   --   De 
    627  RTR_DGC3                   0x0000030c   Lc  Abs   --   De 
    628  RTR_DGC4                   0x00000310   Lc  Abs   --   De 
    629  RTR_DGC5                   0x00000314   Lc  Abs   --   De 
    630  RTR_DGC6                   0x00000318   Lc  Abs   --   De 
    631  RTR_DGC7                   0x0000031c   Lc  Abs   --   De 
    632  RTR_DGC8                   0x00000320   Lc  Abs   --   De 
    633  RTR_DGC9                   0x00000324   Lc  Abs   --   De 
    634  RTR_DGC10                  0x00000328   Lc  Abs   --   De 
    635  RTR_DGC11                  0x0000032c   Lc  Abs   --   De 
    636  RTR_DGC12                  0x00000330   Lc  Abs   --   De 
    637  RTR_DGC13                  0x00000334   Lc  Abs   --   De 
    638  RTR_DGC14                  0x00000338   Lc  Abs   --   De 
    639  RTR_DGC15                  0x0000033c   Lc  Abs   --   De 
    640  RTR_ALLOC_MAX              0x000003ff   Lc  Abs   --   De 
    641  MC_TABLE_SIZE              0x00000400   Lc  Abs   --   De 
    642  RTR_ALLOC_LAST             0x00000400   Lc  Abs   --   De 
    643  SPARE_SIZE                 0x000005a0   Lc  Abs   --   De 
    644  ETH_TX_SIZE                0x00000600   Lc  Abs   --   De 
    645  ETH_RX_SIZE                0x00000c00   Lc  Abs   --   De 
    646  WD_LOCK                    0x00000c00   Lc  Abs   --   De 
    647  RTR_TST1                   0x00000f00   Lc  Abs   --   De 
    648  RTR_TST2                   0x00000f04   Lc  Abs   --   De 
    649  SV_SIZE                    0x00001000   Lc  Abs   --   De 
    650  P2P_TABLE_SIZE             0x00002000   Lc  Abs   --   De 
    651  APLX_BUFFER                0x00007fc0   Lc  Abs   --   De 
    652  ITCM_SIZE                  0x00008000   Lc  Abs   --   De 
    653  ITCM_TOP                   0x00008000   Lc  Abs   --   De 
    654  JTAG_INT                   0x00008000   Lc  Abs   --   De 
    655  ROM_SIZE                   0x00008000   Lc  Abs   --   De 
    656  SRF_PRESENT                0x00008000   Lc  Abs   --   De 
    657  SYSRAM_SIZE                0x00008000   Lc  Abs   --   De 
    658  DTCM_SIZE                  0x00010000   Lc  Abs   --   De 
    659  PKT_MC_PL                  0x00020000   Lc  Abs   --   De 
    660  PKT_PL                     0x00020000   Lc  Abs   --   De 
    661  PLL_260                    0x0007011a   Lc  Abs   --   De 
    662  PLL_300                    0x0007011e   Lc  Abs   --   De 
    663  PLL_330                    0x00070121   Lc  Abs   --   De 
    664  PLL_400                    0x00070128   Lc  Abs   --   De 
    665  JTAG_TDO                   0x00080000   Lc  Abs   --   De 
    666  JTAG_RTCK                  0x00100000   Lc  Abs   --   De 
    667  DTCM_BASE                  0x00400000   Lc  Abs   --   De 
    668  PKT_P2P                    0x00400000   Lc  Abs   --   De 
    669  DTCM_TOP                   0x00410000   Lc  Abs   --   De 
    670  PKT_P2P_PL                 0x00420000   Lc  Abs   --   De 
    671  PKT_NN                     0x00800000   Lc  Abs   --   De 
    672  PKT_NN_PL                  0x00820000   Lc  Abs   --   De 
    673  PKT_NND                    0x00a00000   Lc  Abs   --   De 
    674  PKT_FR                     0x00c00000   Lc  Abs   --   De 
    675  PKT_FR_PL                  0x00c20000   Lc  Abs   --   De 
    676  P2P_INIT                   0x00db6db6   Lc  Abs   --   De 
    677  MC_RAM_MASK                0x00ffffff   Lc  Abs   --   De 
    678  JTAG_TCK                   0x01000000   Lc  Abs   --   De 
    679  JTAG_TDI                   0x02000000   Lc  Abs   --   De 
    680  JTAG_TMS                   0x04000000   Lc  Abs   --   De 
    681  JTAG_NTRST                 0x08000000   Lc  Abs   --   De 
    682  SDRAM_SIZE                 0x08000000   Lc  Abs   --   De 
    683  CC_BASE_UNBUF              0x10000000   Lc  Abs   --   De 
    684  TIMER_BASE_UNBUF           0x11000000   Lc  Abs   --   De 
    685  WD_CODE                    0x1acce551   Lc  Abs   --   De 
    686  VIC_BASE_UNBUF             0x1f000000   Lc  Abs   --   De 
    687  CC_BASE                    0x20000000   Lc  Abs   --   De 
    688  CC_BASE_BUF                0x20000000   Lc  Abs   --   De 
    689  SDRAM_HERE                 0x20000000   Lc  Abs   --   De 
    690  TIMER1_BASE                0x21000000   Lc  Abs   --   De 
    691  TIMER_BASE                 0x21000000   Lc  Abs   --   De 
    692  TIMER_BASE_BUF             0x21000000   Lc  Abs   --   De 
    693  TIMER2_BASE                0x21000020   Lc  Abs   --   De 
    694  VIC_BASE                   0x2f000000   Lc  Abs   --   De 
    695  VIC_BASE_BUF               0x2f000000   Lc  Abs   --   De 
    696  DMA_BASE_UNBUF             0x30000000   Lc  Abs   --   De 
    697  DMA_BASE                   0x40000000   Lc  Abs   --   De 
    698  DMA_BASE_BUF               0x40000000   Lc  Abs   --   De 
    699  SDRAM_DPD                  0x40000000   Lc  Abs   --   De 
    700  CHIP_ID_CODE               0x59111012   Lc  Abs   --   De 
    701  SC_CODE                    0x5ec00000   Lc  Abs   --   De 
    702  SDRAM_BASE                 0x60000000   Lc  Abs   --   De 
    703  SDRAM_BASE_BUF             0x60000000   Lc  Abs   --   De 
    704  SDRAM_TOP                  0x68000000   Lc  Abs   --   De 
    705  SDRAM_BASE_UNBUF           0x70000000   Lc  Abs   --   De 
    706  BIT_31                     0x80000000   Lc  Abs   --   De 
    707  SDRAM_TQ                   0x80000000   Lc  Abs   --   De 
    708  PLL_CLK_SEL                0x809488a5   Lc  Abs   --   De 
    709  DEAD_WORD                  0xdeaddead   Lc  Abs   --   De 
    710  PL340_BASE                 0xe0000000   Lc  Abs   --   De 
    711  PL340_BASE_BUF             0xe0000000   Lc  Abs   --   De 
    712  RTR_BASE                   0xe1000000   Lc  Abs   --   De 
    713  RTR_BASE_BUF               0xe1000000   Lc  Abs   --   De 
    714  RTR_MCRAM_BASE             0xe1004000   Lc  Abs   --   De 
    715  RTR_MCRAM_TOP              0xe1005000   Lc  Abs   --   De 
    716  RTR_MCKEY_BASE             0xe1008000   Lc  Abs   --   De 
    717  RTR_MCKEY_TOP              0xe1009000   Lc  Abs   --   De 
    718  RTR_MCMASK_BASE            0xe100c000   Lc  Abs   --   De 
    719  RTR_MCMASK_TOP             0xe100d000   Lc  Abs   --   De 
    720  RTR_P2P_BASE               0xe1010000   Lc  Abs   --   De 
    721  RTR_P2P_TOP                0xe1018000   Lc  Abs   --   De 
    722  SYSCTL_BASE                0xe2000000   Lc  Abs   --   De 
    723  SYSCTL_BASE_BUF            0xe2000000   Lc  Abs   --   De 
    724  WDOG_BASE                  0xe3000000   Lc  Abs   --   De 
    725  WDOG_BASE_BUF              0xe3000000   Lc  Abs   --   De 
    726  ETH_BASE                   0xe4000000   Lc  Abs   --   De 
    727  ETH_BASE_BUF               0xe4000000   Lc  Abs   --   De 
    728  ETH_TX_BASE                0xe4000000   Lc  Abs   --   De 
    729  ETH_TX_TOP                 0xe4000600   Lc  Abs   --   De 
    730  ETH_RX_BASE                0xe4004000   Lc  Abs   --   De 
    731  ETH_RX_TOP                 0xe4004c00   Lc  Abs   --   De 
    732  ETH_RX_DESC_RAM            0xe4008000   Lc  Abs   --   De 
    733  ETH_REGS                   0xe400c000   Lc  Abs   --   De 
    734  SYSRAM_BASE                0xe5000000   Lc  Abs   --   De 
    735  SYSRAM_BASE_BUF            0xe5000000   Lc  Abs   --   De 
    736  SYS_USER_BASE              0xe5000100   Lc  Abs   --   De 
    737  SV_VCPU                    0xe5007000   Lc  Abs   --   De 
    738  SYS_USER_TOP               0xe5007000   Lc  Abs   --   De 
    739  SV_SPARE                   0xe5007900   Lc  Abs   --   De 
    740  SV_RANDOM                  0xe5007ea0   Lc  Abs   --   De 
    741  RST_BLOCK_BASE             0xe5007ee0   Lc  Abs   --   De 
    742  SV_VECTORS                 0xe5007ee0   Lc  Abs   --   De 
    743  SV_IBASE                   0xe5007f00   Lc  Abs   --   De 
    744  SV_SV                      0xe5007f00   Lc  Abs   --   De 
    745  STATUS_MAP_BASE            0xe5007f80   Lc  Abs   --   De 
    746  SV_UBASE                   0xe5007f80   Lc  Abs   --   De 
    747  SROM_FLAG_BASE             0xe5007fe0   Lc  Abs   --   De 
    748  SV_SROM                    0xe5007fe0   Lc  Abs   --   De 
    749  SYSRAM_TOP                 0xe5008000   Lc  Abs   --   De 
    750  PL340_BASE_UNBUF           0xf0000000   Lc  Abs   --   De 
    751  RTR_BASE_UNBUF             0xf1000000   Lc  Abs   --   De 
    752  SYSCTL_BASE_UNBUF          0xf2000000   Lc  Abs   --   De 
    753  WDOG_BASE_UNBUF            0xf3000000   Lc  Abs   --   De 
    754  ETH_BASE_UNBUF             0xf4000000   Lc  Abs   --   De 
    755  SYSRAM_BASE_UNBUF          0xf5000000   Lc  Abs   --   De 
    756  ROM_BASE                   0xf6000000   Lc  Abs   --   De 
    757  ROM_TOP                    0xf6008000   Lc  Abs   --   De 
    758  dc.s                       0x00000000   Lc  Abs  File  De 
    759  ../../memcpset.s           0x00000000   Lc  Abs  File  De 
    760  .text                      0x00000de4   Lc    1  Sect  De   0x64
    761  ../../division.s           0x00000000   Lc  Abs  File  De 
    762  .text                      0x00000e48   Lc    1  Sect  De   0x17c
    763  __arm_div8                 0x00000e74   Lc    1  Code  De 
    764  __arm_div4                 0x00000ea4   Lc    1  Code  De 
    765  __arm_div_large            0x00000ef8   Lc    1  Code  De 
    766  ../../division.s           0x00000000   Lc  Abs  File  De 
    767  ../../divrt.s              0x00000000   Lc  Abs  File  De 
    768  ../../divrt.s              0x00000000   Lc  Abs  File  De 
    769  ../../d2f.s                0x00000000   Lc  Abs  File  De 
    770  x$fpl$d2f                  0x00001d4c   Lc    1  Sect  De   0xac
    771  ../../ddiv.s               0x00000000   Lc  Abs  File  De 
    772  x$fpl$ddiv                 0x00001e18   Lc    1  Sect  De   0x444
    773  ddiv_entry                 0x00001e1c   Lc    1  Code  De 
    774  ../../dmul.s               0x00000000   Lc  Abs  File  De 
    775  x$fpl$dmul                 0x0000228c   Lc    1  Sect  De   0x1d0
    776  ../../f2d.s                0x00000000   Lc  Abs  File  De 
    777  x$fpl$f2d                  0x00002574   Lc    1  Sect  De   0x64
    778  ../../fdiv.s               0x00000000   Lc  Abs  File  De 
    779  x$fpl$fdiv                 0x000025f0   Lc    1  Sect  De   0x1e4
    780  _fdiv1                     0x000025f0   Lc    1  Code  De 
    781  ../../ffix.s               0x00000000   Lc  Abs  File  De 
    782  x$fpl$ffix                 0x000027d4   Lc    1  Sect  De   0x74
    783  ../../ffixu.s              0x00000000   Lc  Abs  File  De 
    784  x$fpl$ffixu                0x00002848   Lc    1  Sect  De   0x60
    785  ../../fflt.s               0x00000000   Lc  Abs  File  De 
    786  x$fpl$fflt                 0x000028a8   Lc    1  Sect  De   0x34
    787  ../../angel/rt.s           0x00000000   Lc  Abs  File  De 
    788  ../../angel/rt.s           0x00000000   Lc  Abs  File  De 
    789  ../../dcheck.s             0x00000000   Lc  Abs  File  De 
    790  x$fpl$dcheck               0x00001df8   Lc    1  Sect  De   0x10
    791  ../../dcheck1.s            0x00000000   Lc  Abs  File  De 
    792  x$fpl$dcheck1              0x00001e08   Lc    1  Sect  De   0x10
    793  ../../dflt.s               0x00000000   Lc  Abs  File  De 
    794  x$fpl$dflt                 0x0000225c   Lc    1  Sect  De   0x30
    795  ../../dunder.s             0x00000000   Lc  Abs  File  De 
    796  x$fpl$dunder               0x0000245c   Lc    1  Sect  De   0x118
    797  ../../fcheck.s             0x00000000   Lc  Abs  File  De 
    798  x$fpl$fcheck               0x000025d8   Lc    1  Sect  De   0xc
    799  ../../fcheck1.s            0x00000000   Lc  Abs  File  De 
    800  x$fpl$fcheck1              0x000025e4   Lc    1  Sect  De   0xc
    801  ../../fnorm2.s             0x00000000   Lc  Abs  File  De 
    802  x$fpl$fnorm2               0x000028dc   Lc    1  Sect  De   0x50
    803  ../../funder.s             0x00000000   Lc  Abs  File  De 
    804  x$fpl$funder               0x0000292c   Lc    1  Sect  De   0x94
    805  ../../usenofp.s            0x00000000   Lc  Abs  File  De 
    806  x$fpl$usenofp              0x00002a70   Lc    1  Sect  De 
    807  ../../angel/rt.s           0x00000000   Lc  Abs  File  De 
    808  ../../retnan.s             0x00000000   Lc  Abs  File  De 
    809  x$fpl$retnan               0x000029c0   Lc    1  Sect  De   0x74
    810  ../../signal.c             0x00000000   Lc  Abs  File  De 
    811  ../../signal.c             0x00000000   Lc  Abs  File  De 
    812  ../../trapv.s              0x00000000   Lc  Abs  File  De 
    813  x$fpl$trapveneer           0x00002a34   Lc    1  Sect  De   0x3c
    814  ../../angel/rt.s           0x00000000   Lc  Abs  File  De 
    815  ../../signal.c             0x00000000   Lc  Abs  File  De 
    816  ../../signal.c             0x00000000   Lc  Abs  File  De 
    817  ../../angel/sys.s          0x00000000   Lc  Abs  File  De 
    818  ../../signal.c             0x00000000   Lc  Abs  File  De 
    819  ../../signal.c             0x00000000   Lc  Abs  File  De 
    820  ../../angel/sysapp.c       0x00000000   Lc  Abs  File  De 
    821  ../../angel/sys.s          0x00000000   Lc  Abs  File  De 
    822  ../../signal.s             0x00000000   Lc  Abs  File  De 
    823  ../../signal.c             0x00000000   Lc  Abs  File  De 
    824  ../../signal.c             0x00000000   Lc  Abs  File  De 
    825  ../../signal.c             0x00000000   Lc  Abs  File  De 
    826  ../../signal.c             0x00000000   Lc  Abs  File  De 
    827  ../../signal.c             0x00000000   Lc  Abs  File  De 
    828  ../../signal.c             0x00000000   Lc  Abs  File  De 
    829  ../../signal.c             0x00000000   Lc  Abs  File  De 
    830  ../../signal.c             0x00000000   Lc  Abs  File  De 
    831  BuildAttributes$$THM_ISAv2$ARM_ISAv5$E$P$S$PE$A:L22$X:L11$S22$IEEE1$IW$USESV6$~STKCKD$USESV7$~SHL$OSPACE$ROPI$EBA8$STANDARDLIB$REQ8$PRES8$EABIv2
                                    0x00000000   Gb  Abs   --   Hi 
    832  Image$$ITCM$$RO$$Base      0x00000000   Gb    1   --   Hi 
    833  cpu_reset                  0x00000000   Gb    1  Code  Hi   0x4
    834  Image$$DTCM$$RW$$Length    0x0000003c   Gb  Abs   --   Hi 
    835  vic_error                  0x00000108   Gb    1  Code  Hi   0x4
    836  rt_error                   0x0000012c   Gb    1  Code  Hi   0x4
    837  cpu_shutdown               0x0000016c   Gb    1  Code  Hi   0x10
    838  cpu_sleep                  0x0000017c   Gb    1  Code  Hi   0x8
    839  time                       0x00000191   Gb    1  Code  Hi   0x6
    840  Proc_2                     0x00000197   Gb    1  Code  Hi   0x1e
    841  Proc_3                     0x000001b5   Gb    1  Code  Hi   0x1c
    842  Proc_1                     0x000001d1   Gb    1  Code  Hi   0x56
    843  Proc_4                     0x00000227   Gb    1  Code  Hi   0x18
    844  Proc_5                     0x0000023f   Gb    1  Code  Hi   0xc
    845  c_main                     0x0000024b   Gb    1  Code  Hi   0x85a
    846  Image$$STACK$$ZI$$Length   0x00000800   Gb  Abs   --   Hi 
    847  Func_3                     0x00000ccd   Gb    1  Code  Hi   0xc
    848  Proc_6                     0x00000cd9   Gb    1  Code  Hi   0x38
    849  Proc_7                     0x00000d11   Gb    1  Code  Hi   0x8
    850  Proc_8                     0x00000d19   Gb    1  Code  Hi   0x44
    851  Func_1                     0x00000d5d   Gb    1  Code  Hi   0x10
    852  spin1_strcmp               0x00000d6d   Gb    1  Code  Hi   0x28
    853  Func_2                     0x00000d95   Gb    1  Code  Hi   0x48
    854  __aeabi_memcpy4            0x00000de4   Gb    1  Code  Hi 
    855  __aeabi_memcpy8            0x00000de4   Gb    1  Code  De 
    856  __rt_memcpy_w              0x00000de4   Gb    1  Code  De   0x64
    857  _memcpy_lastbytes_aligned  0x00000e30   Gb    1  Code  De 
    858  __aeabi_idiv               0x00000e48   Gb    1  Code  De 
    859  __aeabi_idivmod            0x00000e48   Gb    1  Code  Hi   0x17c
    860  sark_aplx                  0x00000fc5   Gb    1  Code  Hi   0x58
    861  sark_div10                 0x0000101c   Gb    1  Code  Hi   0x30
    862  cpu_init_mode              0x0000104c   Gb    1  Code  Hi   0x18
    863  cpu_int_disable            0x00001064   Gb    1  Code  Hi   0x10
    864  spin1_int_disable          0x00001064   Gb    1  Code  Hi 
    865  cpu_int_restore            0x00001074   Gb    1  Code  Hi   0x8
    866  spin1_mode_restore         0x00001074   Gb    1  Code  Hi 
    867  sark_lock_get              0x0000107c   Gb    1  Code  Hi   0x24
    868  sark_lock_free             0x000010a0   Gb    1  Code  Hi   0x14
    869  sark_config                0x000010b5   Wk    1  Code  Hi 
    870  sark_bx                    0x000010b7   Gb    1  Code  Hi   0x2
    871  sark_int_han               0x000010b8   Gb    1  Code  Hi   0x30
    872  null_int_han               0x000010e8   Gb    1  Code  Hi   0x4
    873  sark_str_cpy               0x000010ec   Gb    1  Code  Hi   0x14
    874  cpu_wfi                    0x00001100   Gb    1  Code  Hi   0x8
    875  spin1_wfi                  0x00001100   Gb    1  Code  Hi 
    876  sark_msg_cpy               0x00001108   Gb    1  Code  Hi   0x10
    877  sark_word_cpy              0x00001118   Gb    1  Code  Hi   0x54
    878  sark_word_set              0x0000116c   Gb    1  Code  Hi   0x24
    879  __ARM_common_switch8       0x00001190   Gb    1  Code  Hi   0x18
    880  event_alloc                0x000011a9   Gb    1  Code  Hi   0x3a
    881  event_pause                0x000011e9   Gb    1  Code  Hi   0x28
    882  event_stop                 0x00001215   Gb    1  Code  Hi   0x12
    883  io_printf                  0x00001271   Gb    1  Code  Hi   0x1f4
    884  io_put_char                0x0000146d   Gb    1  Code  Hi   0xd4
    885  rte_handler                0x000016a1   Wk    1  Code  Hi   0x8
    886  sark_alloc                 0x000016ad   Gb    1  Code  Hi   0x12
    887  sark_block_init            0x000016c5   Gb    1  Code  Hi   0x12
    888  sark_cmd_fill              0x000016d7   Gb    1  Code  Hi   0xe
    889  sark_cmd_read              0x000016e5   Gb    1  Code  Hi   0x5e
    890  sark_cmd_ver               0x00001745   Gb    1  Code  Hi   0x2c
    891  sark_cmd_write             0x00001791   Gb    1  Code  Hi   0x5c
    892  sark_cpu_state             0x000017ed   Gb    1  Code  Hi   0xa
    893  sark_fiq_han               0x000017fc   Gb    1  Code  Hi   0x24
    894  sark_heap_init             0x00001825   Gb    1  Code  Hi   0x18
    895  sark_init                  0x0000183d   Wk    1  Code  Hi   0xdc
    896  sark_int                   0x00001935   Gb    1  Code  Hi   0x14e
    897  sark_msg_free              0x00001a95   Gb    1  Code  Hi   0x1c
    898  sark_msg_get               0x00001ab5   Gb    1  Code  Hi   0x2e
    899  sark_msg_send              0x00001ae9   Gb    1  Code  Hi   0x8a
    900  sark_post_main             0x00001b81   Wk    1  Code  Hi   0xc
    901  sark_pre_main              0x00001b91   Wk    1  Code  Hi   0xc
    902  sark_shmsg_free            0x00001ba1   Gb    1  Code  Hi   0x20
    903  sark_shmsg_get             0x00001bc5   Gb    1  Code  Hi   0x30
    904  sark_vic_init              0x00001bf9   Gb    1  Code  Hi   0x30
    905  sark_vic_set               0x00001c39   Gb    1  Code  Hi   0x30
    906  sark_wait                  0x00001c71   Gb    1  Code  Hi   0x12
    907  sark_xalloc                0x00001c85   Gb    1  Code  Hi   0xc0
    908  schedule_sysmode           0x00001d49   Wk    1  Code  Hi   0x2
    909  __aeabi_d2f                0x00001d4c   Gb    1  Code  Hi 
    910  _d2f                       0x00001d4c   Gb    1  Code  De   0xa8
    911  __fpl_inf_d2f              0x00001dec   Gb    1  Code  De 
    912  __fpl_dcheck_NaN2          0x00001df8   Gb    1  Code  Hi   0xc
    913  __fpl_dcheck_NaN1          0x00001e08   Gb    1  Code  Hi   0xc
    914  __aeabi_ddiv               0x00001e18   Gb    1  Code  Hi 
    915  _ddiv                      0x00001e18   Gb    1  Code  De   0x1c0
    916  __fpl_inf_ddiv             0x00001f94   Gb    1  Code  De 
    917  _ddiv_mantissas            0x00001fd8   Gb    1  Code  De   0x174
    918  __aeabi_i2d                0x0000225c   Gb    1  Code  De 
    919  _dflt                      0x0000225c   Gb    1  Code  De   0x30
    920  __dflt_normalise           0x0000226c   Gb    1  Code  De 
    921  __aeabi_dmul               0x0000228c   Gb    1  Code  Hi 
    922  _dmul                      0x0000228c   Gb    1  Code  De   0x1c0
    923  __fpl_inf_dmul             0x00002418   Gb    1  Code  De 
    924  __dunder                   0x0000245c   Gb    1  Code  Hi   0x114
    925  __dunder_d                 0x00002570   Gb    1  Code  Hi   0x4
    926  __aeabi_f2d                0x00002574   Gb    1  Code  Hi 
    927  _f2d                       0x00002574   Gb    1  Code  De   0x60
    928  __fpl_inf_f2d              0x000025c8   Gb    1  Code  De 
    929  __fpl_fcheck_NaN2          0x000025d8   Gb    1  Code  Hi   0x8
    930  __fpl_fcheck_NaN1          0x000025e4   Gb    1  Code  Hi   0x8
    931  __aeabi_fdiv               0x000025f0   Gb    1  Code  Hi 
    932  _fdiv                      0x000025f0   Gb    1  Code  De   0x1dc
    933  __fpl_inf_fdiv             0x0000278c   Gb    1  Code  De 
    934  __aeabi_f2iz               0x000027d4   Gb    1  Code  Hi 
    935  _ffix                      0x000027d4   Gb    1  Code  De   0x70
    936  __fpl_inf_ffix             0x00002838   Gb    1  Code  De 
    937  __aeabi_f2uiz              0x00002848   Gb    1  Code  Hi 
    938  _ffixu                     0x00002848   Gb    1  Code  De   0x5c
    939  __fpl_inf_ffixu            0x0000289c   Gb    1  Code  De 
    940  __aeabi_i2f                0x000028a8   Gb    1  Code  Hi 
    941  _fflt                      0x000028a8   Gb    1  Code  De   0x34
    942  __fflt_normalise           0x000028b4   Gb    1  Code  De 
    943  __fpl_normalise2           0x000028dc   Gb    1  Code  Hi   0x50
    944  Image$$DTCM$$ZI$$Length    0x000028ec   Gb  Abs   --   Hi 
    945  __funder                   0x0000292c   Gb    1  Code  Hi   0x90
    946  __funder_d                 0x000029bc   Gb    1  Code  Hi   0x4
    947  __fpl_return_NaN           0x000029c0   Gb    1  Code  Hi   0x74
    948  __fpl_cmpreturn            0x00002a34   Gb    1  Code  Hi   0x3c
    949  __I$use$fp                 0x00002a70   Gb    1  Code  De 
    950  build_date                 0x00002a70   Gb    1  Data  Hi   0x4
    951  build_name                 0x00002a74   Gb    1  Data  Hi   0xe
    952  Image$$ITCM$$RO$$Length    0x00002a9c   Gb  Abs   --   Hi 
    953  Ch_1_Glob                  0x00400000   Gb    2  Data  Hi   0x1
    954  Image$$DTCM$$RW$$Base      0x00400000   Gb    2   --   Hi 
    955  Ch_2_Glob                  0x00400001   Gb    2  Data  Hi   0x1
    956  Reg                        0x00400004   Gb    2  Data  Hi   0x4
    957  Ptr_Glob                   0x00400008   Gb    2  Data  Hi   0x4
    958  Next_Ptr_Glob              0x0040000c   Gb    2  Data  Hi   0x4
    959  Int_Glob                   0x00400010   Gb    2  Data  Hi   0x4
    960  Bool_Glob                  0x00400014   Gb    2  Data  Hi   0x4
    961  Begin_Time                 0x00400018   Gb    2  Data  Hi   0x4
    962  End_Time                   0x0040001c   Gb    2  Data  Hi   0x4
    963  User_Time                  0x00400020   Gb    2  Data  Hi   0x4
    964  Microseconds               0x00400024   Gb    2  Data  Hi   0x4
    965  Dhrystones_Per_Second      0x00400028   Gb    2  Data  Hi   0x4
    966  Arr_1_Glob                 0x0040003c   Gb    3  Data  Hi   0xc8
    967  Image$$DTCM$$ZI$$Base      0x0040003c   Gb    3   --   Hi 
    968  Arr_2_Glob                 0x00400104   Gb    3  Data  Hi   0x2710
    969  callback                   0x00402814   Wk    3  Data  Hi   0x40
    970  sark                       0x00402854   Gb    3  Data  Hi   0x3c
    971  event                      0x00402890   Gb    3  Data  Hi   0x98
    972  Image$$DTCM$$ZI$$Limit     0x00402928   Gb    3   --   Hi 
    973  Image$$STACK$$ZI$$Limit    0x00410000   Gb    4   --   Hi 


** Section #7 '.strtab' (SHT_STRTAB)
    Size   : 9544 bytes


** Section #8 '.note' (SHT_NOTE)
    Size   : 32 bytes (alignment 4)


** Section #9 '.comment' (SHT_PROGBITS)
    Size   : 800 bytes


** Section #10 '.shstrtab' (SHT_STRTAB)
    Size   : 72 bytes


